(lp0
((lp1
(lp2
S'a'
p3
aa(lp4
g3
aaS'equal'
p5
tp6
a((lp7
(lp8
g3
aa(lp9
S'c'
p10
aaS'superset'
p11
tp12
a((lp13
(lp14
g3
aa(lp15
S'b'
p16
aaS'neutral'
p17
tp18
a((lp19
(lp20
g3
aa(lp21
S'e'
p22
aag11
tp23
a((lp24
(lp25
g3
aa(lp26
S'd'
p27
aag17
tp28
a((lp29
(lp30
g3
aa(lp31
S'g'
p32
aag11
tp33
a((lp34
(lp35
g3
aa(lp36
S'f'
p37
aag17
tp38
a((lp39
(lp40
g3
aa(lp41
S'i'
p42
aag11
tp43
a((lp44
(lp45
g3
aa(lp46
S'h'
p47
aag17
tp48
a((lp49
(lp50
g3
aa(lp51
S'k'
p52
aag11
tp53
a((lp54
(lp55
g3
aa(lp56
S'j'
p57
aag17
tp58
a((lp59
(lp60
g3
aa(lp61
S'm'
p62
aag11
tp63
a((lp64
(lp65
g3
aa(lp66
S'l'
p67
aag17
tp68
a((lp69
(lp70
g3
aa(lp71
S'n'
p72
aaS'disjoint'
p73
tp74
a((lp75
(lp76
g10
aa(lp77
g3
aaS'subset'
p78
tp79
a((lp80
(lp81
g10
aa(lp82
g10
aag5
tp83
a((lp84
(lp85
g10
aa(lp86
g16
aag78
tp87
a((lp88
(lp89
g10
aa(lp90
g22
aag17
tp91
a((lp92
(lp93
g10
aa(lp94
g27
aag17
tp95
a((lp96
(lp97
g10
aa(lp98
g32
aag11
tp99
a((lp100
(lp101
g10
aa(lp102
g37
aag17
tp103
a((lp104
(lp105
g10
aa(lp106
g42
aag17
tp107
a((lp108
(lp109
g10
aa(lp110
g47
aag17
tp111
a((lp112
(lp113
g10
aa(lp114
g52
aag11
tp115
a((lp116
(lp117
g10
aa(lp118
g57
aag17
tp119
a((lp120
(lp121
g10
aa(lp122
g62
aag73
tp123
a((lp124
(lp125
g10
aa(lp126
g67
aag73
tp127
a((lp128
(lp129
g10
aa(lp130
g72
aag73
tp131
a((lp132
(lp133
g16
aa(lp134
g3
aag17
tp135
a((lp136
(lp137
g16
aa(lp138
g10
aag11
tp139
a((lp140
(lp141
g16
aa(lp142
g16
aag5
tp143
a((lp144
(lp145
g16
aa(lp146
g22
aag17
tp147
a((lp148
(lp149
g16
aa(lp150
g27
aag17
tp151
a((lp152
(lp153
g16
aa(lp154
g32
aag11
tp155
a((lp156
(lp157
g16
aa(lp158
g37
aag11
tp159
a((lp160
(lp161
g16
aa(lp162
g42
aag17
tp163
a((lp164
(lp165
g16
aa(lp166
g47
aag17
tp167
a((lp168
(lp169
g16
aa(lp170
g52
aag11
tp171
a((lp172
(lp173
g16
aa(lp174
g57
aag11
tp175
a((lp176
(lp177
g16
aa(lp178
g62
aag73
tp179
a((lp180
(lp181
g16
aa(lp182
g67
aag17
tp183
a((lp184
(lp185
g16
aa(lp186
g72
aag11
tp187
a((lp188
(lp189
g22
aa(lp190
g3
aag78
tp191
a((lp192
(lp193
g22
aa(lp194
g10
aag17
tp195
a((lp196
(lp197
g22
aa(lp198
g16
aag17
tp199
a((lp200
(lp201
g22
aa(lp202
g22
aag5
tp203
a((lp204
(lp205
g22
aa(lp206
g27
aag78
tp207
a((lp208
(lp209
g22
aa(lp210
g32
aag11
tp211
a((lp212
(lp213
g22
aa(lp214
g37
aag17
tp215
a((lp216
(lp217
g22
aa(lp218
g42
aag17
tp219
a((lp220
(lp221
g22
aa(lp222
g47
aag17
tp223
a((lp224
(lp225
g22
aa(lp226
g52
aag73
tp227
a((lp228
(lp229
g22
aa(lp230
g57
aag73
tp231
a((lp232
(lp233
g22
aa(lp234
g62
aag11
tp235
a((lp236
(lp237
g22
aa(lp238
g67
aag17
tp239
a((lp240
(lp241
g22
aa(lp242
g72
aag73
tp243
a((lp244
(lp245
g27
aa(lp246
g3
aag17
tp247
a((lp248
(lp249
g27
aa(lp250
g10
aag17
tp251
a((lp252
(lp253
g27
aa(lp254
g16
aag17
tp255
a((lp256
(lp257
g27
aa(lp258
g22
aag11
tp259
a((lp260
(lp261
g27
aa(lp262
g27
aag5
tp263
a((lp264
(lp265
g27
aa(lp266
g32
aag11
tp267
a((lp268
(lp269
g27
aa(lp270
g37
aag11
tp271
a((lp272
(lp273
g27
aa(lp274
g42
aag17
tp275
a((lp276
(lp277
g27
aa(lp278
g47
aag17
tp279
a((lp280
(lp281
g27
aa(lp282
g52
aag73
tp283
a((lp284
(lp285
g27
aa(lp286
g57
aag17
tp287
a((lp288
(lp289
g27
aa(lp290
g62
aag11
tp291
a((lp292
(lp293
g27
aa(lp294
g67
aag11
tp295
a((lp296
(lp297
g27
aa(lp298
g72
aag11
tp299
a((lp300
(lp301
g32
aa(lp302
g3
aag78
tp303
a((lp304
(lp305
g32
aa(lp306
g10
aag78
tp307
a((lp308
(lp309
g32
aa(lp310
g16
aag78
tp311
a((lp312
(lp313
g32
aa(lp314
g22
aag78
tp315
a((lp316
(lp317
g32
aa(lp318
g27
aag78
tp319
a((lp320
(lp321
g32
aa(lp322
g32
aag5
tp323
a((lp324
(lp325
g32
aa(lp326
g37
aag78
tp327
a((lp328
(lp329
g32
aa(lp330
g42
aag73
tp331
a((lp332
(lp333
g32
aa(lp334
g47
aag73
tp335
a((lp336
(lp337
g32
aa(lp338
g52
aag73
tp339
a((lp340
(lp341
g32
aa(lp342
g57
aag73
tp343
a((lp344
(lp345
g32
aa(lp346
g62
aag73
tp347
a((lp348
(lp349
g32
aa(lp350
g67
aag73
tp351
a((lp352
(lp353
g32
aa(lp354
g72
aag73
tp355
a((lp356
(lp357
g37
aa(lp358
g3
aag17
tp359
a((lp360
(lp361
g37
aa(lp362
g10
aag17
tp363
a((lp364
(lp365
g37
aa(lp366
g16
aag78
tp367
a((lp368
(lp369
g37
aa(lp370
g22
aag17
tp371
a((lp372
(lp373
g37
aa(lp374
g27
aag78
tp375
a((lp376
(lp377
g37
aa(lp378
g32
aag11
tp379
a((lp380
(lp381
g37
aa(lp382
g37
aag5
tp383
a((lp384
(lp385
g37
aa(lp386
g42
aag73
tp387
a((lp388
(lp389
g37
aa(lp390
g47
aag17
tp391
a((lp392
(lp393
g37
aa(lp394
g52
aag73
tp395
a((lp396
(lp397
g37
aa(lp398
g57
aag17
tp399
a((lp400
(lp401
g37
aa(lp402
g62
aag73
tp403
a((lp404
(lp405
g37
aa(lp406
g67
aag17
tp407
a((lp408
(lp409
g37
aa(lp410
g72
aag11
tp411
a((lp412
(lp413
g42
aa(lp414
g3
aag78
tp415
a((lp416
(lp417
g42
aa(lp418
g10
aag17
tp419
a((lp420
(lp421
g42
aa(lp422
g16
aag17
tp423
a((lp424
(lp425
g42
aa(lp426
g22
aag17
tp427
a((lp428
(lp429
g42
aa(lp430
g27
aag17
tp431
a((lp432
(lp433
g42
aa(lp434
g32
aag73
tp435
a((lp436
(lp437
g42
aa(lp438
g37
aag73
tp439
a((lp440
(lp441
g42
aa(lp442
g42
aag5
tp443
a((lp444
(lp445
g42
aa(lp446
g47
aag78
tp447
a((lp448
(lp449
g42
aa(lp450
g52
aag11
tp451
a((lp452
(lp453
g42
aa(lp454
g57
aag17
tp455
a((lp456
(lp457
g42
aa(lp458
g62
aag11
tp459
a((lp460
(lp461
g42
aa(lp462
g67
aag17
tp463
a((lp464
(lp465
g42
aa(lp466
g72
aag73
tp467
a((lp468
(lp469
g47
aa(lp470
g3
aag17
tp471
a((lp472
(lp473
g47
aa(lp474
g10
aag17
tp475
a((lp476
(lp477
g47
aa(lp478
g16
aag17
tp479
a((lp480
(lp481
g47
aa(lp482
g22
aag17
tp483
a((lp484
(lp485
g47
aa(lp486
g27
aag17
tp487
a((lp488
(lp489
g47
aa(lp490
g32
aag73
tp491
a((lp492
(lp493
g47
aa(lp494
g37
aag17
tp495
a((lp496
(lp497
g47
aa(lp498
g42
aag11
tp499
a((lp500
(lp501
g47
aa(lp502
g47
aag5
tp503
a((lp504
(lp505
g47
aa(lp506
g52
aag11
tp507
a((lp508
(lp509
g47
aa(lp510
g57
aag11
tp511
a((lp512
(lp513
g47
aa(lp514
g62
aag11
tp515
a((lp516
(lp517
g47
aa(lp518
g67
aag11
tp519
a((lp520
(lp521
g47
aa(lp522
g72
aag11
tp523
a((lp524
(lp525
g52
aa(lp526
g3
aag78
tp527
a((lp528
(lp529
g52
aa(lp530
g10
aag78
tp531
a((lp532
(lp533
g52
aa(lp534
g16
aag78
tp535
a((lp536
(lp537
g52
aa(lp538
g22
aag73
tp539
a((lp540
(lp541
g52
aa(lp542
g27
aag73
tp543
a((lp544
(lp545
g52
aa(lp546
g32
aag73
tp547
a((lp548
(lp549
g52
aa(lp550
g37
aag73
tp551
a((lp552
(lp553
g52
aa(lp554
g42
aag78
tp555
a((lp556
(lp557
g52
aa(lp558
g47
aag78
tp559
a((lp560
(lp561
g52
aa(lp562
g52
aag5
tp563
a((lp564
(lp565
g52
aa(lp566
g57
aag78
tp567
a((lp568
(lp569
g52
aa(lp570
g62
aag73
tp571
a((lp572
(lp573
g52
aa(lp574
g67
aag73
tp575
a((lp576
(lp577
g52
aa(lp578
g72
aag73
tp579
a((lp580
(lp581
g57
aa(lp582
g3
aag17
tp583
a((lp584
(lp585
g57
aa(lp586
g10
aag17
tp587
a((lp588
(lp589
g57
aa(lp590
g16
aag78
tp591
a((lp592
(lp593
g57
aa(lp594
g22
aag73
tp595
a((lp596
(lp597
g57
aa(lp598
g27
aag17
tp599
a((lp600
(lp601
g57
aa(lp602
g32
aag73
tp603
a((lp604
(lp605
g57
aa(lp606
g37
aag17
tp607
a((lp608
(lp609
g57
aa(lp610
g42
aag17
tp611
a((lp612
(lp613
g57
aa(lp614
g47
aag78
tp615
a((lp616
(lp617
g57
aa(lp618
g52
aag11
tp619
a((lp620
(lp621
g57
aa(lp622
g57
aag5
tp623
a((lp624
(lp625
g57
aa(lp626
g62
aag73
tp627
a((lp628
(lp629
g57
aa(lp630
g67
aag17
tp631
a((lp632
(lp633
g57
aa(lp634
g72
aag11
tp635
a((lp636
(lp637
g62
aa(lp638
g3
aag78
tp639
a((lp640
(lp641
g62
aa(lp642
g10
aag73
tp643
a((lp644
(lp645
g62
aa(lp646
g16
aag73
tp647
a((lp648
(lp649
g62
aa(lp650
g22
aag78
tp651
a((lp652
(lp653
g62
aa(lp654
g27
aag78
tp655
a((lp656
(lp657
g62
aa(lp658
g32
aag73
tp659
a((lp660
(lp661
g62
aa(lp662
g37
aag73
tp663
a((lp664
(lp665
g62
aa(lp666
g42
aag78
tp667
a((lp668
(lp669
g62
aa(lp670
g47
aag78
tp671
a((lp672
(lp673
g62
aa(lp674
g52
aag73
tp675
a((lp676
(lp677
g62
aa(lp678
g57
aag73
tp679
a((lp680
(lp681
g62
aa(lp682
g62
aag5
tp683
a((lp684
(lp685
g62
aa(lp686
g67
aag78
tp687
a((lp688
(lp689
g62
aa(lp690
g72
aag73
tp691
a((lp692
(lp693
g67
aa(lp694
g3
aag17
tp695
a((lp696
(lp697
g67
aa(lp698
g10
aag73
tp699
a((lp700
(lp701
g67
aa(lp702
g16
aag17
tp703
a((lp704
(lp705
g67
aa(lp706
g22
aag17
tp707
a((lp708
(lp709
g67
aa(lp710
g27
aag78
tp711
a((lp712
(lp713
g67
aa(lp714
g32
aag73
tp715
a((lp716
(lp717
g67
aa(lp718
g37
aag17
tp719
a((lp720
(lp721
g67
aa(lp722
g42
aag17
tp723
a((lp724
(lp725
g67
aa(lp726
g47
aag78
tp727
a((lp728
(lp729
g67
aa(lp730
g52
aag73
tp731
a((lp732
(lp733
g67
aa(lp734
g57
aag17
tp735
a((lp736
(lp737
g67
aa(lp738
g62
aag11
tp739
a((lp740
(lp741
g67
aa(lp742
g67
aag5
tp743
a((lp744
(lp745
g67
aa(lp746
g72
aag11
tp747
a((lp748
(lp749
g72
aa(lp750
g3
aag73
tp751
a((lp752
(lp753
g72
aa(lp754
g10
aag73
tp755
a((lp756
(lp757
g72
aa(lp758
g16
aag78
tp759
a((lp760
(lp761
g72
aa(lp762
g22
aag73
tp763
a((lp764
(lp765
g72
aa(lp766
g27
aag78
tp767
a((lp768
(lp769
g72
aa(lp770
g32
aag73
tp771
a((lp772
(lp773
g72
aa(lp774
g37
aag78
tp775
a((lp776
(lp777
g72
aa(lp778
g42
aag73
tp779
a((lp780
(lp781
g72
aa(lp782
g47
aag78
tp783
a((lp784
(lp785
g72
aa(lp786
g52
aag73
tp787
a((lp788
(lp789
g72
aa(lp790
g57
aag78
tp791
a((lp792
(lp793
g72
aa(lp794
g62
aag73
tp795
a((lp796
(lp797
g72
aa(lp798
g67
aag78
tp799
a((lp800
(lp801
g72
aa(lp802
g72
aag5
tp803
a.