(lp0
(S'(q&(q|(q&q)))'
p1
S'((p=q)|q)'
p2
S'entailment'
p3
tp4
a(S'(q&(p|p))'
p5
S'(q=(p<(q&p)))'
p6
g3
tp7
a(S'((q&(q&q))|q)'
p8
S'(p|(q&q))'
p9
g3
tp10
a(S'(q|q)'
p11
S'(q&(q|(p=p)))'
p12
g3
tp13
a(S'((q=p)=p)'
p14
S'(q|(p<(q&p)))'
p15
g3
tp16
a(S'~(q|p)'
p17
S'(q<(q|(q&q)))'
p18
g3
tp19
a(S'((q<q)&p)'
p20
S'((p|q)<p)'
p21
g3
tp22
a(S'((q=p)|p)'
p23
S'(p<(p=p))'
p24
g3
tp25
a(S'(p&(q<p))'
p26
S'((q=q)=p)'
p27
g3
tp28
a(S'(q<(q&~p))'
p29
S'(((q|q)=q)|p)'
p30
g3
tp31
a(S'((q<(q=q))<p)'
p32
S'(p=(q<p))'
p33
g3
tp34
a(S'((q=q)&p)'
p35
S'((p<p)|p)'
p36
g3
tp37
a(S'((p<q)&q)'
p38
S'(((q&q)=q)<q)'
p39
g3
tp40
a(S'((p=q)<q)'
p41
S'(p|(p=p))'
p42
g3
tp43
a(S'((p<q)<q)'
p44
S'(((p|p)|p)=p)'
p45
g3
tp46
a(S'((p=q)&q)'
p47
S'(((q|q)=q)&p)'
p48
g3
tp49
a(g8
S'(q=(p<p))'
p50
g3
tp51
a(g44
g42
g3
tp52
a(S'~p'
p53
S'(q|(q|(q=q)))'
p54
g3
tp55
a(g14
S'((q&p)<p)'
p56
g3
tp57
a(S'~(q|q)'
p58
S'((p&p)<p)'
p59
g3
tp60
a(S'(q<(q<p))'
p61
g61
g3
tp62
a(S'(p|((q|q)<q))'
p63
S'(p<(p<p))'
p64
g3
tp65
a(S'~((q&q)&q)'
p66
S'((q=q)|p)'
p67
g3
tp68
a(S'~(p|q)'
p69
g15
g3
tp70
a(g11
S'(p<((p<q)|p))'
p71
g3
tp72
a(S'(q&(q<p))'
p73
S'(~(p&q)<p)'
p74
g3
tp75
a(S'~((q&q)|q)'
p76
S'~(q&q)'
p77
g3
tp78
a(S'(p&q)'
p79
S'(q=(q|(q&q)))'
p80
g3
tp81
a(S'((q<(q&q))&q)'
p82
S'(q|~(q&q))'
p83
g3
tp84
a(S'(q=(p|p))'
p85
S'(q<(p<(q&p)))'
p86
g3
tp87
a(S'(p<p)'
p88
S'(p<((q|q)<q))'
p89
g3
tp90
a(S'((p&p)|p)'
p91
S'(p=((q|q)<q))'
p92
g3
tp93
a(g35
S'((q<(q=q))=p)'
p94
g3
tp95
a(S'(q&(p<q))'
p96
g54
g3
tp97
a(g5
S'(q|(p<p))'
p98
g3
tp99
a(S'(p<(q<p))'
p100
S'(q|(q<p))'
p101
g3
tp102
a(S'((q&p)&p)'
p103
S'~~p'
p104
g3
tp105
a(g48
S'(p&((q|q)<q))'
p106
g3
tp107
a(S'(q|(q|(q&q)))'
p108
S'(~(p<q)|q)'
p109
g3
tp110
a(g94
S'((q&p)|p)'
p111
g3
tp112
a(g67
g101
g3
tp113
a(g32
S'(p|(q<p))'
p114
g3
tp115
a(g27
g41
g3
tp116
a(S'(p&(p=p))'
p117
S'(~~p<p)'
p118
g3
tp119
a(S'(p|(q=q))'
p120
g71
g3
tp121
a(g44
S'((q&(q&q))=q)'
p122
g3
tp123
a(g74
g74
g3
tp124
a(S'(q=(p<q))'
p125
g54
g3
tp126
a(g44
g9
g3
tp127
a(S'((q<q)<p)'
p128
S'(q=q)'
p129
g3
tp130
a(S'((q&p)=p)'
p131
S'(q|(p<q))'
p132
g3
tp133
a(S'(q&(p<p))'
p134
S'(q|(q&~p))'
p135
g3
tp136
a(S'((q|p)&q)'
p137
g1
g3
tp138
a(S'(p|((p<q)|p))'
p139
g42
g3
tp140
a(g88
g71
g3
tp141
a(S'~(p=q)'
p142
S'((q<(q&q))|q)'
p143
g3
tp144
a(S'(((q|q)=q)<p)'
p145
S'((p<p)&p)'
p146
g3
tp147
a(S'(p<((q&p)&q))'
p148
g98
g3
tp149
a(S'~~q'
p150
g132
g3
tp151
a(g134
S'(q<(q|(q=q)))'
p152
g3
tp153
a(g48
S'(((p|p)|p)|p)'
p154
g3
tp155
a(S'~(q|~p)'
p156
g18
g3
tp157
a(S'((q=p)&p)'
p158
S'(p|(p<p))'
p159
g3
tp160
a(S'(q<q)'
p161
g161
g3
tp162
a(g85
g80
g3
tp163
a(g1
g118
g3
tp164
a(g71
S'(((p|p)|p)<p)'
p165
g3
tp166
a(S'(~(p<q)<q)'
p167
g129
g3
tp168
a(g59
S'(q|(q|(p=p)))'
p169
g3
tp170
a(g6
g161
g3
tp171
a(S'(~(q|q)&p)'
p172
g106
g3
tp173
a(g9
g88
g3
tp174
a(g26
g120
g3
tp175
a(g80
g42
g3
tp176
a(g79
S'(((q&q)=q)=q)'
p177
g3
tp178
a(S'((q<q)=p)'
p179
S'~~(q|p)'
p180
g3
tp181
a(g79
g161
g3
tp182
a(g156
g109
g3
tp183
a(S'~(q<p)'
p184
S'((p|q)|p)'
p185
g3
tp186
a(g158
g38
g3
tp187
a(S'(p&((q&p)&q))'
p188
S'((p<p)=p)'
p189
g3
tp190
a(g45
g120
g3
tp191
a(S'~(p<(p<q))'
p192
S'(~(p&q)&p)'
p193
g3
tp194
a(S'(p=(p=p))'
p195
S'(p=(p<p))'
p196
g3
tp197
a(S'((p=q)=q)'
p198
g9
g3
tp199
a(g77
S'((q&(q&q))<q)'
p200
g3
tp201
a(S'(~(q|q)<p)'
p202
g101
g3
tp203
a(g89
g200
g3
tp204
a(g180
g100
g3
tp205
a(S'((p<q)=q)'
p206
g169
g3
tp207
a(S'p'
p208
g41
g3
tp209
a(g192
S'~q'
p210
g3
tp211
a(g58
g29
g3
tp212
a(S'(q|(p|p))'
p213
g63
g3
tp214
a(S'(~(p&q)|p)'
p215
g139
g3
tp216
a(g91
S'((p|q)=p)'
p217
g3
tp218
a(g17
S'(p<q)'
p219
g3
tp220
a(g146
S'((q<q)|p)'
p221
g3
tp222
a(S'(p&(p<p))'
p223
g179
g3
tp224
a(g53
g86
g3
tp225
a(S'(q=(q|(q=q)))'
p226
g167
g3
tp227
a(g94
g56
g3
tp228
a(g27
g165
g3
tp229
a(S'(p&(q=q))'
p230
g100
g3
tp231
a(S'((q=p)<p)'
p232
S'(p|q)'
p233
g3
tp234
a(g94
g143
g3
tp235
a(g29
g101
g3
tp236
a(g128
S'~~(q<p)'
p237
g3
tp238
a(g188
g1
g3
tp239
a(S'(p=q)'
p240
g98
g3
tp241
a(S'(((p|p)|p)&p)'
p242
S'(p&((p<q)|p))'
p243
g3
tp244
a(g232
S'~~(p<p)'
p245
g3
tp246
a(g11
g64
g3
tp247
a(g44
g36
g3
tp248
a(g47
g233
g3
tp249
a(S'((p|q)&p)'
p250
S'(p=((p<q)|p))'
p251
g3
tp252
a(g226
S'(p=((q&p)&q))'
p253
g3
tp254
a(g180
g56
g3
tp255
a(g188
S'(q=p)'
p256
g3
tp257
a(S'(~(p<q)=q)'
p258
g83
g3
tp259
a(S'((q<(q=q))&p)'
p260
g169
g3
tp261
a(g26
g233
g3
tp262
a(S'(q&q)'
p263
g83
g3
tp264
a(g213
g125
g3
tp265
a(S'(q&~(p|p))'
p266
g82
g3
tp267
a(g266
S'((p&p)=p)'
p268
g3
tp269
a(S'(p|p)'
p270
g42
g3
tp271
a(g177
g180
g3
tp272
a(g145
S'((q|p)|q)'
p273
g3
tp274
a(S'(p|((q&p)&q))'
p275
g230
g3
tp276
a(g23
g118
g3
tp277
a(g48
S'((q=q)<p)'
p278
g3
tp279
a(g76
S'((q<(q=q))|p)'
p280
g3
tp281
a(S'(~~p|p)'
p282
g196
g3
tp283
a(S'((q<(q&q))=q)'
p284
g108
g3
tp285
a(S'(q|~(p|p))'
p286
g143
g3
tp287
a(g47
S'(q&(p<(q&p)))'
p288
g3
tp289
a(g111
g114
g3
tp290
a(g232
g185
g3
tp291
a(S'((p&p)&p)'
p292
g292
g3
tp293
a(g288
g202
g3
tp294
a(g103
g195
g3
tp295
a(S'(q<(q|(p=p)))'
p296
g80
g3
tp297
a(g91
g185
g3
tp298
a(g196
g67
g3
tp299
a(S'~((q|q)|q)'
p300
g54
g3
tp301
a(g217
g36
g3
tp302
a(g245
g215
g3
tp303
a(g196
g125
g3
tp304
a(g85
g253
g3
tp305
a(g282
g64
g3
tp306
a(g18
g101
g3
tp307
a(S'(p=(q&q))'
p308
g169
g3
tp309
a(g44
S'(((q&q)=q)|q)'
p310
g3
tp311
a(g26
g32
g3
tp312
a(g5
g42
g3
tp313
a(S'~~(p<q)'
p314
g286
g3
tp315
a(g92
g270
g3
tp316
a(g47
g158
g3
tp317
a(g45
g159
g3
tp318
a(g14
g177
g3
tp319
a(S'(((q&q)=q)&q)'
p320
g296
g3
tp321
a(S'~(p=(p<q))'
p322
g221
g3
tp323
a(g50
g41
g3
tp324
a(g82
g122
g3
tp325
a(g134
g11
g3
tp326
a(g89
g30
g3
tp327
a(g288
g310
g3
tp328
a(g135
g320
g3
tp329
a(g179
g120
g3
tp330
a(S'(q&p)'
p331
g129
g3
tp332
a(g202
g143
g3
tp333
a(g230
S'(~(q|q)|p)'
p334
g3
tp335
a(g23
g139
g3
tp336
a(S'~~(p=p)'
p337
g98
g3
tp338
a(g158
g117
g3
tp339
a(g260
g237
g3
tp340
a(g242
g6
g3
tp341
a(S'(~(q|q)=p)'
p342
g9
g3
tp343
a(g148
g148
g3
tp344
a(g198
g98
g3
tp345
a(S'(q<(p|p))'
p346
g98
g3
tp347
a(g73
g245
g3
tp348
a(g114
S'(q<p)'
p349
g3
tp350
a(g14
g202
g3
tp351
a(g20
g282
g3
tp352
a(g156
g270
g3
tp353
a(g79
g250
g3
tp354
a(g292
g94
g3
tp355
a(g118
g100
g3
tp356
a(g27
g198
g3
tp357
a(g82
g296
g3
tp358
a(g94
g91
g3
tp359
a(S'(~~p&p)'
p360
g278
g3
tp361
a(g100
g280
g3
tp362
a(g210
g237
g3
tp363
a(g179
g117
g3
tp364
a(g189
g67
g3
tp365
a(S'(((q|q)=q)=p)'
p366
g92
g3
tp367
a(g192
g71
g3
tp368
a(S'(q=~(p|p))'
p369
g337
g3
tp370
a(g322
g80
g3
tp371
a(g135
g50
g3
tp372
a(g103
g280
g3
tp373
a(g263
g152
g3
tp374
a(g14
g161
g3
tp375
a(g32
g30
g3
tp376
a(g50
g232
g3
tp377
a(g139
g245
g3
tp378
a(g66
g221
g3
tp379
a(g195
g165
g3
tp380
a(g349
g56
g3
tp381
a(g71
g221
g3
tp382
a(g300
g77
g3
tp383
a(g331
g288
g3
tp384
a(g195
g159
g3
tp385
a(g292
g45
g3
tp386
a(g223
g100
g3
tp387
a(g128
g33
g3
tp388
a(g135
S'((q|p)=q)'
p389
g3
tp390
a(g188
g167
g3
tp391
a(g198
g23
g3
tp392
a(g74
g251
g3
tp393
a(g9
g63
g3
tp394
a(S'((q<(q&q))<q)'
p395
g200
g3
tp396
a(g188
g108
g3
tp397
a(g337
g129
g3
tp398
a(g148
g169
g3
tp399
a(g275
S'(p=p)'
p400
g3
tp401
a(g39
g50
g3
tp402
a(g243
g67
g3
tp403
a(S'(p&(q&q))'
p404
g208
g3
tp405
a(g134
g161
g3
tp406
a(g167
g148
g3
tp407
a(S'(q=(q&~p))'
p408
g337
g3
tp409
a(g177
g139
g3
tp410
a(g369
S'(q<(p<p))'
p411
g3
tp412
a(g53
g296
g3
tp413
a(g154
g346
g3
tp414
a(g92
g221
g3
tp415
a(g154
g74
g3
tp416
a(g349
g122
g3
tp417
a(S'(q&(q|(q=q)))'
p418
g83
g3
tp419
a(g128
g83
g3
tp420
a(g11
g159
g3
tp421
a(g76
g120
g3
tp422
a(g188
g54
g3
tp423
a(g21
g346
g3
tp424
a(g263
g56
g3
tp425
a(g26
g111
g3
tp426
a(S'((p<p)<p)'
p427
g117
g3
tp428
a(g83
g310
g3
tp429
a(S'(q=(q|(p=p)))'
p430
g200
g3
tp431
a(g282
g104
g3
tp432
a(g172
g24
g3
tp433
a(g292
g100
g3
tp434
a(g56
g268
g3
tp435
a(g67
g36
g3
tp436
a(g67
g411
g3
tp437
a(g169
g100
g3
tp438
a(g30
g98
g3
tp439
a(g284
S'q'
p440
g3
tp441
a(g342
S'(~~p=p)'
p442
g3
tp443
a(S'(q<~(p|p))'
p444
g86
g3
tp445
a(g85
g122
g3
tp446
a(g41
g296
g3
tp447
a(g213
g118
g3
tp448
a(g27
g366
g3
tp449
a(S'((p<q)|q)'
p450
g161
g3
tp451
a(g179
g360
g3
tp452
a(g251
g89
g3
tp453
a(g185
g280
g3
tp454
a(g310
g18
g3
tp455
a(g14
g108
g3
tp456
a(g152
g80
g3
tp457
a(g33
g71
g3
tp458
a(g192
g360
g3
tp459
a(g210
S'(p<(q=q))'
p460
g3
tp461
a(S'(p&p)'
p462
g230
g3
tp463
a(g111
g206
g3
tp464
a(g152
g30
g3
tp465
a(g63
g221
g3
tp466
a(g69
g66
g3
tp467
a(S'(~(p&q)=p)'
p468
g260
g3
tp469
a(g15
g389
g3
tp470
a(S'(q<~(q&q))'
p471
g200
g3
tp472
a(g226
g98
g3
tp473
a(g369
g232
g3
tp474
a(g148
g450
g3
tp475
a(g296
g245
g3
tp476
a(g27
g128
g3
tp477
a(g188
g67
g3
tp478
a(g20
g139
g3
tp479
a(g135
g253
g3
tp480
a(g192
g143
g3
tp481
a(g150
g131
g3
tp482
a(g226
g67
g3
tp483
a(g139
g54
g3
tp484
a(g80
g280
g3
tp485
a(g310
g120
g3
tp486
a(g242
g346
g3
tp487
a(g251
g26
g3
tp488
a(g404
g48
g3
tp489
a(g33
g280
g3
tp490
a(g284
g284
g3
tp491
a(g193
g369
g3
tp492
a(g77
g120
g3
tp493
a(g21
g88
g3
tp494
a(g146
g196
g3
tp495
a(g131
g83
g3
tp496
a(g29
S'~(p&q)'
p497
g3
tp498
a(g185
g161
g3
tp499
a(g161
g86
g3
tp500
a(g53
g120
g3
tp501
a(g44
g139
g3
tp502
a(S'((q&(q&q))&q)'
p503
g152
g3
tp504
a(g89
g310
g3
tp505
a(g221
g56
g3
tp506
a(g192
g342
g3
tp507
a(g108
g245
g3
tp508
a(S'~(p&p)'
p509
g59
g3
tp510
a(g389
g15
g3
tp511
a(g103
g196
g3
tp512
a(g73
g208
g3
tp513
a(g47
g418
g3
tp514
a(g226
g56
g3
tp515
a(g12
g129
g3
tp516
a(g56
g86
g3
tp517
a(g48
g215
g3
tp518
a(g117
g273
g3
tp519
a(g80
g122
g3
tp520
a(g243
g462
g3
tp521
a(g86
g80
g3
tp522
a(g120
g98
g3
tp523
a(g106
g120
g3
tp524
a(g349
g165
g3
tp525
a(g292
g98
g3
tp526
a(g273
g54
g3
tp527
a(g135
g89
g3
tp528
a(g275
g270
g3
tp529
a(g158
g237
g3
tp530
a(g260
g18
g3
tp531
a(g45
g442
g3
tp532
a(g94
g122
g3
tp533
a(g12
g83
g3
tp534
a(g337
g88
g3
tp535
a(g35
g125
g3
tp536
a(g106
g292
g3
tp537
a(g179
g41
g3
tp538
a(g73
g63
g3
tp539
a(g83
g411
g3
tp540
a(g172
g300
g3
tp541
a(g395
g143
g3
tp542
a(g404
g237
g3
tp543
a(g38
g1
g3
tp544
a(g8
g80
g3
tp545
a(g192
g243
g3
tp546
a(g180
g54
g3
tp547
a(S'~(q<(q<p))'
p548
g233
g3
tp549
a(S'((q|p)<q)'
p550
g42
g3
tp551
a(g440
g80
g3
tp552
a(S'(q&(q&~p))'
p553
g286
g3
tp554
a(g159
S'(q<(p<q))'
p555
g3
tp556
a(g145
g282
g3
tp557
a(g208
g334
g3
tp558
a(g76
g71
g3
tp559
a(g146
g18
g3
tp560
a(g15
g337
g3
tp561
a(g35
g27
g3
tp562
a(g331
g418
g3
tp563
a(g132
g67
g3
tp564
a(g189
g278
g3
tp565
a(g509
g18
g3
tp566
a(g242
g48
g3
tp567
a(g471
g58
g3
tp568
a(g54
g143
g3
tp569
a(g251
g360
g3
tp570
a(g69
g300
g3
tp571
a(g450
g98
g3
tp572
a(g188
g33
g3
tp573
a(g128
g92
g3
tp574
a(g462
g349
g3
tp575
a(g497
g442
g3
tp576
a(g73
g86
g3
tp577
a(g450
g550
g3
tp578
a(g300
g346
g3
tp579
a(g20
g243
g3
tp580
a(g32
g32
g3
tp581
a(g369
g152
g3
tp582
a(g296
g100
g3
tp583
a(g251
g36
g3
tp584
a(g253
g152
g3
tp585
a(g169
g200
g3
tp586
a(g256
g161
g3
tp587
a(g251
g122
g3
tp588
a(g440
g226
g3
tp589
a(g550
g555
g3
tp590
a(S'(q=(q<p))'
p591
g221
g3
tp592
a(g263
g44
g3
tp593
a(g221
g71
g3
tp594
a(g256
g346
g3
tp595
a(g450
g400
g3
tp596
a(g404
g111
g3
tp597
a(g444
g71
g3
tp598
a(g223
g94
g3
tp599
a(g103
S'(p=(q=q))'
p600
g3
tp601
a(g408
g45
g3
tp602
a(S'(p<(q&q))'
p603
g42
g3
tp604
a(g266
g63
g3
tp605
a(g129
g80
g3
tp606
a(g278
g89
g3
tp607
a(g278
g251
g3
tp608
a(g61
g23
g3
tp609
a(g89
g337
g3
tp610
a(g266
g2
g3
tp611
a(g349
g101
g3
tp612
a(g553
g137
g3
tp613
a(g9
g64
g3
tp614
a(g548
g342
g3
tp615
a(g56
g143
g3
tp616
a(g98
g215
g3
tp617
a(g172
g169
g3
tp618
a(g11
g14
g3
tp619
a(g260
g346
g3
tp620
a(g73
g143
g3
tp621
a(g553
g6
g3
tp622
a(g418
g64
g3
tp623
a(g79
g89
g3
tp624
a(g310
g161
g3
tp625
a(g154
g237
g3
tp626
a(g600
g98
g3
tp627
a(g96
g108
g3
tp628
a(g331
g92
g3
tp629
a(g137
g129
g3
tp630
a(g260
g268
g3
tp631
a(g148
g56
g3
tp632
a(g219
g450
g3
tp633
a(g284
g30
g3
tp634
a(g300
g555
g3
tp635
a(g232
g273
g3
tp636
a(g331
g158
g3
tp637
a(g63
g98
g3
tp638
a(g331
g286
g3
tp639
a(g100
g59
g3
tp640
a(g74
g427
g3
tp641
a(g195
g275
g3
tp642
a(g64
g280
g3
tp643
a(g63
g86
g3
tp644
a(g6
g122
g3
tp645
a(g71
g59
g3
tp646
a(g73
g128
g3
tp647
a(g74
g232
g3
tp648
a(g360
g217
g3
tp649
a(g69
g29
g3
tp650
a(g430
g24
g3
tp651
a(S'~(p|p)'
p652
g118
g3
tp653
a(g468
g63
g3
tp654
a(g35
g233
g3
tp655
a(g12
g219
g3
tp656
a(g440
g15
g3
tp657
a(g208
g555
g3
tp658
a(g106
g45
g3
tp659
a(g260
g202
g3
tp660
a(g54
g101
g3
tp661
a(g266
g129
g3
tp662
a(g27
g152
g3
tp663
a(g256
g54
g3
tp664
a(g198
g129
g3
tp665
a(g142
g165
g3
tp666
a(g242
g128
g3
tp667
a(g250
g180
g3
tp668
a(g44
g98
g3
tp669
a(g47
g430
g3
tp670
a(g158
g103
g3
tp671
a(g73
g278
g3
tp672
a(g233
g213
g3
tp673
a(g232
g221
g3
tp674
a(g320
g213
g3
tp675
a(g86
g411
g3
tp676
a(g268
g143
g3
tp677
a(g74
g89
g3
tp678
a(g137
g288
g3
tp679
a(g195
g232
g3
tp680
a(g548
g165
g3
tp681
a(g185
g296
g3
tp682
a(g137
g80
g3
tp683
a(g342
g310
g3
tp684
a(g400
g100
g3
tp685
a(g369
g322
g3
tp686
a(g156
g9
g3
tp687
a(g73
g98
g3
tp688
a(g286
g139
g3
tp689
a(g334
g400
g3
tp690
a(g430
g167
g3
tp691
a(g652
S'~((p|p)|p)'
p692
g3
tp693
a(g509
g159
g3
tp694
a(g286
g555
g3
tp695
a(g366
g80
g3
tp696
a(g240
g114
g3
tp697
a(g8
g161
g3
tp698
a(g14
g18
g3
tp699
a(g14
g122
g3
tp700
a(g27
g48
g3
tp701
a(g296
g18
g3
tp702
a(g331
g462
g3
tp703
a(g103
g108
g3
tp704
a(g50
g442
g3
tp705
a(g177
g18
g3
tp706
a(g256
g389
g3
tp707
a(g282
g282
g3
tp708
a(g427
g179
g3
tp709
a(g550
g450
g3
tp710
a(g440
g88
g3
tp711
a(g29
g129
g3
tp712
a(g192
g76
g3
tp713
a(g58
g139
g3
tp714
a(g158
g245
g3
tp715
a(g395
g296
g3
tp716
a(g232
g120
g3
tp717
a(g117
g35
g3
tp718
a(g85
g346
g3
tp719
a(g223
g63
g3
tp720
a(g103
g158
g3
tp721
a(g408
g169
g3
tp722
a(g14
g8
g3
tp723
a(g188
g152
g3
tp724
a(g24
g221
g3
tp725
a(g156
g460
g3
tp726
a(g1
g137
g3
tp727
a(g104
g400
g3
tp728
a(g117
g555
g3
tp729
a(g243
g180
g3
tp730
a(g553
g11
g3
tp731
a(g82
g253
g3
tp732
a(g158
g427
g3
tp733
a(g337
g159
g3
tp734
a(g233
g139
g3
tp735
a(g128
g114
g3
tp736
a(g548
g29
g3
tp737
a(g200
g64
g3
tp738
a(g242
g30
g3
tp739
a(g172
g427
g3
tp740
a(g226
g219
g3
tp741
a(g256
g217
g3
tp742
a(g450
g215
g3
tp743
a(g198
g251
g3
tp744
a(g292
g67
g3
tp745
a(g217
g139
g3
tp746
a(g5
g284
g3
tp747
a(g8
g430
g3
tp748
a(g253
g200
g3
tp749
a(g268
g296
g3
tp750
a(g468
g156
g3
tp751
a(g74
g24
g3
tp752
a(g346
g67
g3
tp753
a(g300
g61
g3
tp754
a(g251
g280
g3
tp755
a(g30
g159
g3
tp756
a(g275
g243
g3
tp757
a(g108
g63
g3
tp758
a(g219
g221
g3
tp759
a(g450
g18
g3
tp760
a(g603
g167
g3
tp761
a(g79
g462
g3
tp762
a(g185
g42
g3
tp763
a(g54
g139
g3
tp764
a(g20
g427
g3
tp765
a(g73
g320
g3
tp766
a(g200
g159
g3
tp767
a(g288
g603
g3
tp768
a(g251
g366
g3
tp769
a(g278
g26
g3
tp770
a(g193
g198
g3
tp771
a(g48
g63
g3
tp772
a(g66
g58
g3
tp773
a(g503
g9
g3
tp774
a(g331
g125
g3
tp775
a(g444
S'~(q&p)'
p776
g3
tp777
a(g320
g80
g3
tp778
a(g195
g128
g3
tp779
a(g223
g442
g3
tp780
a(g322
g408
g3
tp781
a(g86
g118
g3
tp782
a(g314
g54
g3
tp783
a(g172
g296
g3
tp784
a(g8
g263
g3
tp785
a(g342
g118
g3
tp786
a(g177
g86
g3
tp787
a(g468
g202
g3
tp788
a(g172
g30
g3
tp789
a(g232
g30
g3
tp790
a(g74
g128
g3
tp791
a(g210
g30
g3
tp792
a(g263
g503
g3
tp793
a(g103
g251
g3
tp794
a(g471
g776
g3
tp795
a(g278
g275
g3
tp796
a(g125
g56
g3
tp797
a(g322
g89
g3
tp798
a(g108
g18
g3
tp799
a(g198
g18
g3
tp800
a(g80
g245
g3
tp801
a(g135
g314
g3
tp802
a(g122
g86
g3
tp803
a(g47
g237
g3
tp804
a(g20
g64
g3
tp805
a(g189
g104
g3
tp806
a(g253
g460
g3
tp807
a(g96
g280
g3
tp808
a(g24
g310
g3
tp809
a(g223
g27
g3
tp810
a(g404
g442
g3
tp811
a(g94
g24
g3
tp812
a(g292
g232
g3
tp813
a(g591
g106
g3
tp814
a(g468
g56
g3
tp815
a(g169
g268
g3
tp816
a(g430
g122
g3
tp817
a(g61
g215
g3
tp818
a(g221
g67
g3
tp819
a(g53
g497
g3
tp820
a(g292
g180
g3
tp821
a(S'~(q=p)'
p822
g161
g3
tp823
a(g94
g100
g3
tp824
a(g286
g296
g3
tp825
a(g56
g63
g3
tp826
a(g468
g44
g3
tp827
a(g202
g221
g3
tp828
a(g288
g430
g3
tp829
a(g591
g35
g3
tp830
a(g44
g233
g3
tp831
a(g230
g195
g3
tp832
a(g273
g44
g3
tp833
a(g80
g143
g3
tp834
a(g349
g334
g3
tp835
a(g8
g232
g3
tp836
a(g226
g83
g3
tp837
a(g120
g200
g3
tp838
a(g14
g550
g3
tp839
a(g41
g221
g3
tp840
a(g208
g27
g3
tp841
a(g210
g217
g3
tp842
a(g47
g349
g3
tp843
a(S'~(p&(p|p))'
p844
g161
g3
tp845
a(g146
g122
g3
tp846
a(g137
g83
g3
tp847
a(g497
g64
g3
tp848
a(g251
g64
g3
tp849
a(g54
g118
g3
tp850
a(g142
g64
g3
tp851
a(g104
g278
g3
tp852
a(g346
g334
g3
tp853
a(g503
g185
g3
tp854
a(g88
g200
g3
tp855
a(g185
g98
g3
tp856
a(g122
g63
g3
tp857
a(g27
g442
g3
tp858
a(g82
g233
g3
tp859
a(g444
g169
g3
tp860
a(g245
g169
g3
tp861
a(g258
g45
g3
tp862
a(g471
g56
g3
tp863
a(g91
g346
g3
tp864
a(g468
g74
g3
tp865
a(g460
g460
g3
tp866
a(g96
g450
g3
tp867
a(g404
g120
g3
tp868
a(g444
g337
g3
tp869
a(g189
g270
g3
tp870
a(g53
g555
g3
tp871
a(g280
g59
g3
tp872
a(g320
g337
g3
tp873
a(g404
g591
g3
tp874
a(g226
g296
g3
tp875
a(g278
g169
g3
tp876
a(g35
S'(q|p)'
p877
g3
tp878
a(g146
g282
g3
tp879
a(g196
g310
g3
tp880
a(g200
g83
g3
tp881
a(g250
g45
g3
tp882
a(g24
g555
g3
tp883
a(g6
g877
g3
tp884
a(g776
g122
g3
tp885
a(g226
g177
g3
tp886
a(g69
g76
g3
tp887
a(g497
g54
g3
tp888
a(g94
g555
g3
tp889
a(g404
g165
g3
tp890
a(g86
g245
g3
tp891
a(g89
g101
g3
tp892
a(g94
g86
g3
tp893
a(g77
g36
g3
tp894
a(g150
g226
g3
tp895
a(g137
g33
g3
tp896
a(g167
g2
g3
tp897
a(g106
g196
g3
tp898
a(g108
g120
g3
tp899
a(g85
g555
g3
tp900
a(g32
g180
g3
tp901
a(g156
g193
g3
tp902
a(g366
g71
g3
tp903
a(g109
g83
g3
tp904
a(g503
g296
g3
tp905
a(g88
g245
g3
tp906
a(g503
g129
g3
tp907
a(g146
g111
g3
tp908
a(g29
g67
g3
tp909
a(g54
g215
g3
tp910
a(g117
g32
g3
tp911
a(g243
g346
g3
tp912
a(g260
g139
g3
tp913
a(g101
g310
g3
tp914
a(g50
g100
g3
tp915
a(g440
g82
g3
tp916
a(g86
g122
g3
tp917
a(g600
g92
g3
tp918
a(g270
g411
g3
tp919
a(g404
g360
g3
tp920
a(g69
g139
g3
tp921
a(g360
g346
g3
tp922
a(g179
g92
g3
tp923
a(g47
g346
g3
tp924
a(g2
g411
g3
tp925
a(g292
g63
g3
tp926
a(g94
g460
g3
tp927
a(g82
g44
g3
tp928
a(g44
g161
g3
tp929
a(g20
g152
g3
tp930
a(g260
g555
g3
tp931
a(g109
g98
g3
tp932
a(g877
g400
g3
tp933
a(g103
g411
g3
tp934
a(g77
g129
g3
tp935
a(g83
g221
g3
tp936
a(g145
g122
g3
tp937
a(g96
g253
g3
tp938
a(g54
g45
g3
tp939
a(g337
g86
g3
tp940
a(g114
g71
g3
tp941
a(g243
g21
g3
tp942
a(g334
g268
g3
tp943
a(g253
g45
g3
tp944
a(g156
g342
g3
tp945
a(g278
g195
g3
tp946
a(g94
g251
g3
tp947
a(g128
g104
g3
tp948
a(g192
g88
g3
tp949
a(g553
g320
g3
tp950
a(g79
g206
g3
tp951
a(g120
g310
g3
tp952
a(g189
g32
g3
tp953
a(g63
g18
g3
tp954
a(g250
g213
g3
tp955
a(g26
g165
g3
tp956
a(g148
g337
g3
tp957
a(g79
g64
g3
tp958
a(g128
g94
g3
tp959
a(g143
g88
g3
tp960
a(g192
g278
g3
tp961
a(g232
g159
g3
tp962
a(g180
g122
g3
tp963
a(g161
g460
g3
tp964
a(g39
g100
g3
tp965
a(g331
g245
g3
tp966
a(g263
g400
g3
tp967
a(g150
g202
g3
tp968
a(g213
g41
g3
tp969
a(g258
g314
g3
tp970
a(g17
g167
g3
tp971
a(g73
g137
g3
tp972
a(g17
g56
g3
tp973
a(g150
g139
g3
tp974
a(g1
g206
g3
tp975
a(g94
g400
g3
tp976
a(g135
g159
g3
tp977
a(g226
g206
g3
tp978
a(g79
g83
g3
tp979
a(g14
g442
g3
tp980
a(g270
g221
g3
tp981
a(g342
g159
g3
tp982
a(g184
g100
g3
tp983
a(g184
g180
g3
tp984
a(g15
g80
g3
tp985
a(g33
g877
g3
tp986
a(g202
g98
g3
tp987
a(g135
g185
g3
tp988
a(g844
g497
g3
tp989
a(g125
g337
g3
tp990
a(g213
g36
g3
tp991
a(g331
g188
g3
tp992
a(g179
g6
g3
tp993
a(g404
g85
g3
tp994
a(g26
g33
g3
tp995
a(g692
g322
g3
tp996
a(g135
g503
g3
tp997
a(g263
g71
g3
tp998
a(g50
g54
g3
tp999
a(g63
g36
g3
tp1000
a(g266
g440
g3
tp1001
a(g5
g250
g3
tp1002
a(g47
g38
g3
tp1003
a(g82
g143
g3
tp1004
a(g20
g92
g3
tp1005
a(g418
g389
g3
tp1006
a(g404
g320
g3
tp1007
a(g118
g215
g3
tp1008
a(g460
g30
g3
tp1009
a(g192
g18
g3
tp1010
a(g134
g603
g3
tp1011
a(g47
g221
g3
tp1012
a(g292
g71
g3
tp1013
a(g213
g64
g3
tp1014
a(g146
g251
g3
tp1015
a(g12
g213
g3
tp1016
a(g58
g83
g3
tp1017
a(g251
g346
g3
tp1018
a(g286
g221
g3
tp1019
a(g74
g56
g3
tp1020
a(g161
g245
g3
tp1021
a(g145
g555
g3
tp1022
a(g192
g460
g3
tp1023
a(g91
g146
g3
tp1024
a(g114
g120
g3
tp1025
a(g200
g18
g3
tp1026
a(g360
g120
g3
tp1027
a(g450
g219
g3
tp1028
a(g418
g150
g3
tp1029
a(g122
g400
g3
tp1030
a(g2
g152
g3
tp1031
a(g193
g192
g3
tp1032
a(g226
g159
g3
tp1033
a(g188
g286
g3
tp1034
a(g260
g48
g3
tp1035
a(g158
g430
g3
tp1036
a(g83
g460
g3
tp1037
a(g331
g250
g3
tp1038
a(g131
g64
g3
tp1039
a(g134
g245
g3
tp1040
a(g63
g555
g3
tp1041
a(g150
g15
g3
tp1042
a(g103
g67
g3
tp1043
a(g29
g296
g3
tp1044
a(g503
g67
g3
tp1045
a(g26
g91
g3
tp1046
a(g243
g169
g3
tp1047
a(g158
g206
g3
tp1048
a(g45
g45
g3
tp1049
a(g98
g101
g3
tp1050
a(g172
g196
g3
tp1051
a(g404
g11
g3
tp1052
a(g196
g27
g3
tp1053
a(g184
g41
g3
tp1054
a(g35
g427
g3
tp1055
a(g114
g280
g3
tp1056
a(g120
g30
g3
tp1057
a(g44
g213
g3
tp1058
a(g18
g169
g3
tp1059
a(g73
g202
g3
tp1060
a(g408
g215
g3
tp1061
a(g12
g1
g3
tp1062
a(g134
g129
g3
tp1063
a(g282
g270
g3
tp1064
a(g509
g45
g3
tp1065
a(g245
g129
g3
tp1066
a(g395
g131
g3
tp1067
a(g73
g85
g3
tp1068
a(g50
g45
g3
tp1069
a(g300
g210
g3
tp1070
a(g5
g232
g3
tp1071
a(g36
g63
g3
tp1072
a(g50
g202
g3
tp1073
a(g139
g337
g3
tp1074
a(g206
g98
g3
tp1075
a(g145
g89
g3
tp1076
a(g108
g202
g3
tp1077
a(g48
g260
g3
tp1078
a(g27
g600
g3
tp1079
a(g39
g202
g3
tp1080
a(g64
g63
g3
tp1081
a(g86
g88
g3
tp1082
a(g184
g54
g3
tp1083
a(g88
g411
g3
tp1084
a(g270
g89
g3
tp1085
a(g47
g139
g3
tp1086
a(g242
g270
g3
tp1087
a(g503
g98
g3
tp1088
a(g548
g450
g3
tp1089
a(g193
g334
g3
tp1090
a(g189
g36
g3
tp1091
a(g253
g100
g3
tp1092
a(g35
g54
g3
tp1093
a(g462
g296
g3
tp1094
a(g430
g440
g3
tp1095
a(g77
g89
g3
tp1096
a(g548
g39
g3
tp1097
a(g29
g29
g3
tp1098
a(g145
g143
g3
tp1099
a(g331
g15
g3
tp1100
a(g54
g460
g3
tp1101
a(g196
g245
g3
tp1102
a(g96
g185
g3
tp1103
a(g256
g550
g3
tp1104
a(g553
g30
g3
tp1105
a(g47
g73
g3
tp1106
a(g314
g165
g3
tp1107
a(g331
g349
g3
tp1108
a(g169
g101
g3
tp1109
a(g314
g152
g3
tp1110
a(g471
g280
g3
tp1111
a(g193
g460
g3
tp1112
a(g74
g26
g3
tp1113
a(g145
g54
g3
tp1114
a(g208
g61
g3
tp1115
a(g342
g200
g3
tp1116
a(g125
g64
g3
tp1117
a(g346
g159
g3
tp1118
a(g331
g96
g3
tp1119
a(g30
g88
g3
tp1120
a(g74
g63
g3
tp1121
a(g50
g167
g3
tp1122
a(g266
g33
g3
tp1123
a(g38
g109
g3
tp1124
a(g21
g30
g3
tp1125
a(g442
g88
g3
tp1126
a(g73
g59
g3
tp1127
a(g1
g310
g3
tp1128
a(g47
g219
g3
tp1129
a(g69
g21
g3
tp1130
a(g73
g56
g3
tp1131
a(g63
g30
g3
tp1132
a(g41
g159
g3
tp1133
a(g73
g9
g3
tp1134
a(g100
g161
g3
tp1135
a(g548
g86
g3
tp1136
a(g192
g77
g3
tp1137
a(g250
g27
g3
tp1138
a(g411
g30
g3
tp1139
a(g555
g268
g3
tp1140
a(g471
g221
g3
tp1141
a(g360
g462
g3
tp1142
a(g76
g61
g3
tp1143
a(g195
g310
g3
tp1144
a(g167
g36
g3
tp1145
a(g50
g120
g3
tp1146
a(g73
g280
g3
tp1147
a(g27
g118
g3
tp1148
a(g15
g122
g3
tp1149
a(g36
g165
g3
tp1150
a(g156
g300
g3
tp1151
a(g77
g66
g3
tp1152
a(g88
g24
g3
tp1153
a(g179
g411
g3
tp1154
a(g395
g213
g3
tp1155
a(g591
g118
g3
tp1156
a(g114
g30
g3
tp1157
a(g79
g15
g3
tp1158
a(g284
g9
g3
tp1159
a(g185
g400
g3
tp1160
a(g36
g56
g3
tp1161
a(g600
g165
g3
tp1162
a(g430
g86
g3
tp1163
a(g89
g442
g3
tp1164
a(g73
g122
g3
tp1165
a(g158
g185
g3
tp1166
a(g94
g9
g3
tp1167
a(g23
g349
g3
tp1168
a(g471
g152
g3
tp1169
a(g85
g132
g3
tp1170
a(g308
g245
g3
tp1171
a(g230
g159
g3
tp1172
a(g230
g223
g3
tp1173
a(g154
g208
g3
tp1174
a(g232
g89
g3
tp1175
a(g114
g169
g3
tp1176
a(g45
g83
g3
tp1177
a(g92
g208
g3
tp1178
a(g427
g206
g3
tp1179
a(g591
g86
g3
tp1180
a(g111
g251
g3
tp1181
a(g256
g67
g3
tp1182
a(g226
g71
g3
tp1183
a(g142
g444
g3
tp1184
a(g591
g195
g3
tp1185
a(g251
g45
g3
tp1186
a(g240
g460
g3
tp1187
a(g395
g139
g3
tp1188
a(g440
g232
g3
tp1189
a(g47
g117
g3
tp1190
a(g844
g53
g3
tp1191
a(g196
g179
g3
tp1192
a(g591
g5
g3
tp1193
a(g288
g550
g3
tp1194
a(g258
g245
g3
tp1195
a(g208
g273
g3
tp1196
a(g137
g122
g3
tp1197
a(g8
g15
g3
tp1198
a(g263
g148
g3
tp1199
a(g245
g24
g3
tp1200
a(g11
g18
g3
tp1201
a(g256
g692
S'neutral'
p1202
tp1203
a(g145
g79
g1202
tp1204
a(g180
g23
g1202
tp1205
a(g349
g210
g1202
tp1206
a(g150
g188
g1202
tp1207
a(g91
g14
g1202
tp1208
a(g179
g177
g1202
tp1209
a(g346
g468
g1202
tp1210
a(g89
g450
g1202
tp1211
a(g101
g180
g1202
tp1212
a(g217
g58
g1202
tp1213
a(g408
g548
g1202
tp1214
a(g308
g440
g1202
tp1215
a(g342
g8
g1202
tp1216
a(g200
g92
g1202
tp1217
a(g109
g73
g1202
tp1218
a(g169
g877
g1202
tp1219
a(g509
g8
g1202
tp1220
a(g450
g471
g1202
tp1221
a(g314
g92
g1202
tp1222
a(g167
g242
g1202
tp1223
a(g33
g284
g1202
tp1224
a(g450
g322
g1202
tp1225
a(g270
g38
g1202
tp1226
a(g142
g32
g1202
tp1227
a(g117
g77
g1202
tp1228
a(g120
g430
g1202
tp1229
a(g142
g23
g1202
tp1230
a(g202
g349
g1202
tp1231
a(g273
g468
g1202
tp1232
a(g200
g6
g1202
tp1233
a(g253
g74
g1202
tp1234
a(g509
g6
g1202
tp1235
a(g270
g418
g1202
tp1236
a(g88
g53
g1202
tp1237
a(g411
g652
g1202
tp1238
a(g29
g251
g1202
tp1239
a(g273
g135
g1202
tp1240
a(g322
g134
g1202
tp1241
a(g54
g177
g1202
tp1242
a(g503
g427
g1202
tp1243
a(g111
g15
g1202
tp1244
a(g509
g202
g1202
tp1245
a(g114
g92
g1202
tp1246
a(g106
g79
g1202
tp1247
a(g286
g430
g1202
tp1248
a(g106
g503
g1202
tp1249
a(g152
g591
g1202
tp1250
a(g550
g29
g1202
tp1251
a(g226
g35
g1202
tp1252
a(g143
g106
g1202
tp1253
a(g50
g21
g1202
tp1254
a(g232
g497
g1202
tp1255
a(g366
g38
g1202
tp1256
a(g88
g408
g1202
tp1257
a(g308
g180
g1202
tp1258
a(g118
g322
g1202
tp1259
a(g395
g145
g1202
tp1260
a(g692
g349
g1202
tp1261
a(g844
g349
g1202
tp1262
a(g215
g32
g1202
tp1263
a(g161
g334
g1202
tp1264
a(g159
g208
g1202
tp1265
a(g442
g322
g1202
tp1266
a(g253
g184
g1202
tp1267
a(g208
g550
g1202
tp1268
a(g180
g408
g1202
tp1269
a(g152
g134
g1202
tp1270
a(g273
g389
g1202
tp1271
a(g555
g9
g1202
tp1272
a(g142
g230
g1202
tp1273
a(g2
g114
g1202
tp1274
a(g11
g250
g1202
tp1275
a(g200
g82
g1202
tp1276
a(g80
g243
g1202
tp1277
a(g98
g50
g1202
tp1278
a(g200
g5
g1202
tp1279
a(g300
g253
g1202
tp1280
a(g217
g243
g1202
tp1281
a(g273
g286
g1202
tp1282
a(g292
g219
g1202
tp1283
a(g273
g342
g1202
tp1284
a(g268
g192
g1202
tp1285
a(g45
g184
g1202
tp1286
a(g165
g198
g1202
tp1287
a(g322
g251
g1202
tp1288
a(g503
g509
g1202
tp1289
a(g555
g468
g1202
tp1290
a(g600
g108
g1202
tp1291
a(g139
g548
g1202
tp1292
a(g322
g85
g1202
tp1293
a(g251
g108
g1202
tp1294
a(g50
g26
g1202
tp1295
a(g334
g1
g1202
tp1296
a(g67
g198
g1202
tp1297
a(g38
g349
g1202
tp1298
a(g38
g23
g1202
tp1299
a(g148
g108
g1202
tp1300
a(g122
g213
g1202
tp1301
a(g208
g822
g1202
tp1302
a(g63
g9
g1202
tp1303
a(g342
g553
g1202
tp1304
a(g167
g44
g1202
tp1305
a(g310
g12
g1202
tp1306
a(g555
g692
g1202
tp1307
a(g314
g237
g1202
tp1308
a(g44
g172
g1202
tp1309
a(g275
g226
g1202
tp1310
a(g180
g275
g1202
tp1311
a(g844
g135
g1202
tp1312
a(g118
g263
g1202
tp1313
a(g243
g137
g1202
tp1314
a(g30
g404
g1202
tp1315
a(g23
g242
g1202
tp1316
a(g161
g111
g1202
tp1317
a(g108
g366
g1202
tp1318
a(g94
g47
g1202
tp1319
a(g21
g156
g1202
tp1320
a(g36
g219
g1202
tp1321
a(g54
g5
g1202
tp1322
a(g30
g47
g1202
tp1323
a(g165
g23
g1202
tp1324
a(g200
g548
g1202
tp1325
a(g282
g322
g1202
tp1326
a(g233
g408
g1202
tp1327
a(g118
g148
g1202
tp1328
a(g450
g109
g1202
tp1329
a(g600
g342
g1202
tp1330
a(g240
g322
g1202
tp1331
a(g108
g427
g1202
tp1332
a(g48
g440
g1202
tp1333
a(g251
g226
g1202
tp1334
a(g280
g550
g1202
tp1335
a(g342
g219
g1202
tp1336
a(g30
g198
g1202
tp1337
a(g200
g292
g1202
tp1338
a(g98
g125
g1202
tp1339
a(g196
g156
g1202
tp1340
a(g38
g692
g1202
tp1341
a(g237
g550
g1202
tp1342
a(g308
g9
g1202
tp1343
a(g550
g154
g1202
tp1344
a(g215
g369
g1202
tp1345
a(g280
g69
g1202
tp1346
a(g555
g61
g1202
tp1347
a(g256
g844
g1202
tp1348
a(g250
g342
g1202
tp1349
a(g32
g77
g1202
tp1350
a(g268
g15
g1202
tp1351
a(g109
g146
g1202
tp1352
a(g125
g300
g1202
tp1353
a(g108
g188
g1202
tp1354
a(g286
g9
g1202
tp1355
a(g232
g444
g1202
tp1356
a(g159
g189
g1202
tp1357
a(g322
g198
g1202
tp1358
a(g253
g266
g1202
tp1359
a(g177
g462
g1202
tp1360
a(g256
g117
g1202
tp1361
a(g143
g91
g1202
tp1362
a(g242
g38
g1202
tp1363
a(g226
g270
g1202
tp1364
a(g337
g14
g1202
tp1365
a(g349
g27
g1202
tp1366
a(g54
g180
g1202
tp1367
a(g74
g167
g1202
tp1368
a(g85
g12
g1202
tp1369
a(g198
g193
g1202
tp1370
a(g85
g471
g1202
tp1371
a(g59
g39
g1202
tp1372
a(g444
g177
g1202
tp1373
a(g24
g292
g1202
tp1374
a(g18
g468
g1202
tp1375
a(g877
g591
g1202
tp1376
a(g169
g135
g1202
tp1377
a(g237
g196
g1202
tp1378
a(g217
g53
g1202
tp1379
a(g54
g223
g1202
tp1380
a(g603
g553
g1202
tp1381
a(g104
g591
g1202
tp1382
a(g275
g322
g1202
tp1383
a(g24
g8
g1202
tp1384
a(g180
g300
g1202
tp1385
a(g152
g230
g1202
tp1386
a(g221
g103
g1202
tp1387
a(g360
g96
g1202
tp1388
a(g30
g193
g1202
tp1389
a(g125
g167
g1202
tp1390
a(g180
g58
g1202
tp1391
a(g23
g408
g1202
tp1392
a(g296
g21
g1202
tp1393
a(g42
g27
g1202
tp1394
a(g134
g600
g1202
tp1395
a(g243
g288
g1202
tp1396
a(g822
g286
g1202
tp1397
a(g83
g349
g1202
tp1398
a(g342
g108
g1202
tp1399
a(g129
g9
g1202
tp1400
a(g18
g206
g1202
tp1401
a(g195
g468
g1202
tp1402
a(g30
g308
g1202
tp1403
a(g389
g258
g1202
tp1404
a(g206
g266
g1202
tp1405
a(g131
g26
g1202
tp1406
a(g177
g208
g1202
tp1407
a(g310
g430
g1202
tp1408
a(g389
g85
g1202
tp1409
a(g59
g196
g1202
tp1410
a(g165
g342
g1202
tp1411
a(g292
g450
g1202
tp1412
a(g24
g94
g1202
tp1413
a(g11
g53
g1202
tp1414
a(g64
g94
g1202
tp1415
a(g233
g250
g1202
tp1416
a(g36
g331
g1202
tp1417
a(g389
g233
g1202
tp1418
a(g349
g366
g1202
tp1419
a(g8
g292
g1202
tp1420
a(g226
g349
g1202
tp1421
a(g196
g240
g1202
tp1422
a(g440
g322
g1202
tp1423
a(g80
g41
g1202
tp1424
a(g111
g8
g1202
tp1425
a(g177
g230
g1202
tp1426
a(g18
g284
g1202
tp1427
a(g251
g253
g1202
tp1428
a(g430
g652
g1202
tp1429
a(g85
g103
g1202
tp1430
a(g877
g193
g1202
tp1431
a(g63
g320
g1202
tp1432
a(g652
g177
g1202
tp1433
a(g131
g114
g1202
tp1434
a(g308
g26
g1202
tp1435
a(g45
g462
g1202
tp1436
a(g320
g48
g1202
tp1437
a(g54
g233
g1202
tp1438
a(g41
g600
g1202
tp1439
a(g109
g61
g1202
tp1440
a(g180
g603
g1202
tp1441
a(g322
g258
g1202
tp1442
a(g118
g29
g1202
tp1443
a(g159
g177
g1202
tp1444
a(g38
g73
g1202
tp1445
a(g349
g94
g1202
tp1446
a(g54
g53
g1202
tp1447
a(g24
g76
g1202
tp1448
a(g109
g148
g1202
tp1449
a(g877
g58
g1202
tp1450
a(g337
g240
g1202
tp1451
a(g59
g223
g1202
tp1452
a(g88
g548
g1202
tp1453
a(g42
g210
g1202
tp1454
a(g346
g395
g1202
tp1455
a(g208
g12
g1202
tp1456
a(g268
g21
g1202
tp1457
a(g21
g132
g1202
tp1458
a(g314
g258
g1202
tp1459
a(g603
g497
g1202
tp1460
a(g442
g260
g1202
tp1461
a(g509
g9
g1202
tp1462
a(g139
g146
g1202
tp1463
a(g135
g251
g1202
tp1464
a(g108
g189
g1202
tp1465
a(g310
g334
g1202
tp1466
a(g430
g189
g1202
tp1467
a(g45
g600
g1202
tp1468
a(g48
g14
g1202
tp1469
a(g346
g135
g1202
tp1470
a(g139
g117
g1202
tp1471
a(g63
g322
g1202
tp1472
a(g308
g135
g1202
tp1473
a(g462
g73
g1202
tp1474
a(g15
g32
g1202
tp1475
a(g198
g497
g1202
tp1476
a(g185
g300
g1202
tp1477
a(g310
g440
g1202
tp1478
a(g88
g50
g1202
tp1479
a(g232
g11
g1202
tp1480
a(g66
g292
g1202
tp1481
a(g137
g256
g1202
tp1482
a(g555
g314
g1202
tp1483
a(g440
g48
g1202
tp1484
a(g132
g11
g1202
tp1485
a(g83
g427
g1202
tp1486
a(g196
g284
g1202
tp1487
a(g131
g346
g1202
tp1488
a(g63
g266
g1202
tp1489
a(g100
g404
g1202
tp1490
a(g33
g509
g1202
tp1491
a(g440
g74
g1202
tp1492
a(g217
g193
g1202
tp1493
a(g41
g404
g1202
tp1494
a(g131
g85
g1202
tp1495
a(g278
g132
g1202
tp1496
a(g169
g109
g1202
tp1497
a(g21
g223
g1202
tp1498
a(g497
g35
g1202
tp1499
a(g35
g440
g1202
tp1500
a(g39
g223
g1202
tp1501
a(g232
g288
g1202
tp1502
a(g129
g142
g1202
tp1503
a(g6
g179
g1202
tp1504
a(g273
g217
g1202
tp1505
a(g442
g33
g1202
tp1506
a(g509
g69
g1202
tp1507
a(g334
g408
g1202
tp1508
a(g64
g76
g1202
tp1509
a(g150
g73
g1202
tp1510
a(g54
g158
g1202
tp1511
a(g692
g273
g1202
tp1512
a(g63
g369
g1202
tp1513
a(g165
g142
g1202
tp1514
a(g245
g26
g1202
tp1515
a(g54
g69
g1202
tp1516
a(g226
g73
g1202
tp1517
a(g146
g226
g1202
tp1518
a(g232
g471
g1202
tp1519
a(g36
g32
g1202
tp1520
a(g169
g27
g1202
tp1521
a(g82
g23
g1202
tp1522
a(g2
g292
g1202
tp1523
a(g41
g253
g1202
tp1524
a(g450
g106
g1202
tp1525
a(g66
g125
g1202
tp1526
a(g61
g444
g1202
tp1527
a(g63
g230
g1202
tp1528
a(g208
g256
g1202
tp1529
a(g118
g408
g1202
tp1530
a(g106
g8
g1202
tp1531
a(g88
g213
g1202
tp1532
a(g131
g395
g1202
tp1533
a(g9
g39
g1202
tp1534
a(g179
g603
g1202
tp1535
a(g232
g27
g1202
tp1536
a(g32
g156
g1202
tp1537
a(g442
g137
g1202
tp1538
a(g296
g232
g1202
tp1539
a(g308
g206
g1202
tp1540
a(g275
g444
g1202
tp1541
a(g64
g253
g1202
tp1542
a(g263
g208
g1202
tp1543
a(g877
g300
g1202
tp1544
a(g71
g180
g1202
tp1545
a(g18
g137
g1202
tp1546
a(g275
g5
g1202
tp1547
a(g42
g270
g1202
tp1548
a(g555
g158
g1202
tp1549
a(g320
g427
g1202
tp1550
a(g210
g20
g1202
tp1551
a(g165
g877
g1202
tp1552
a(g284
g195
g1202
tp1553
a(g152
g314
g1202
tp1554
a(g82
g251
g1202
tp1555
a(g460
g251
g1202
tp1556
a(g63
g497
g1202
tp1557
a(g221
g142
g1202
tp1558
a(g652
g135
g1202
tp1559
a(g154
g29
g1202
tp1560
a(g215
g430
g1202
tp1561
a(g337
g179
g1202
tp1562
a(g245
g349
g1202
tp1563
a(g280
g198
g1202
tp1564
a(g9
g111
g1202
tp1565
a(g822
g208
g1202
tp1566
a(g100
g468
g1202
tp1567
a(g503
g79
g1202
tp1568
a(g189
g430
g1202
tp1569
a(g15
g103
g1202
tp1570
a(g80
g253
g1202
tp1571
a(g23
g142
g1202
tp1572
a(g67
g240
g1202
tp1573
a(g430
g188
g1202
tp1574
a(g251
g503
g1202
tp1575
a(g240
g282
g1202
tp1576
a(g296
g69
g1202
tp1577
a(g85
g652
g1202
tp1578
a(g268
g213
g1202
tp1579
a(g189
g58
g1202
tp1580
a(g24
g12
g1202
tp1581
a(g550
g135
g1202
tp1582
a(g104
g284
g1202
tp1583
a(g219
g230
g1202
tp1584
a(g1
g652
g1202
tp1585
a(g6
g177
g1202
tp1586
a(g38
g230
g1202
tp1587
a(g418
g256
g1202
tp1588
a(g169
g195
g1202
tp1589
a(g101
g250
g1202
tp1590
a(g206
g135
g1202
tp1591
a(g86
g366
g1202
tp1592
a(g114
g172
g1202
tp1593
a(g442
g230
g1202
tp1594
a(g189
g226
g1202
tp1595
a(g226
g23
g1202
tp1596
a(g61
g260
g1202
tp1597
a(g30
g242
g1202
tp1598
a(g146
g430
g1202
tp1599
a(g132
g237
g1202
tp1600
a(g322
g104
g1202
tp1601
a(g148
g292
g1202
tp1602
a(g427
g2
g1202
tp1603
a(g450
g223
g1202
tp1604
a(g131
g96
g1202
tp1605
a(g189
g85
g1202
tp1606
a(g555
g177
g1202
tp1607
a(g137
g334
g1202
tp1608
a(g56
g50
g1202
tp1609
a(g161
g652
g1202
tp1610
a(g111
g103
g1202
tp1611
a(g42
g91
g1202
tp1612
a(g444
g342
g1202
tp1613
a(g245
g776
g1202
tp1614
a(g603
g189
g1202
tp1615
a(g24
g150
g1202
tp1616
a(g221
g23
g1202
tp1617
a(g189
g210
g1202
tp1618
a(g120
g96
g1202
tp1619
a(g132
g320
g1202
tp1620
a(g59
g146
g1202
tp1621
a(g2
g284
g1202
tp1622
a(g263
g23
g1202
tp1623
a(g284
g26
g1202
tp1624
a(g14
g408
g1202
tp1625
a(g117
g148
g1202
tp1626
a(g42
g497
g1202
tp1627
a(g54
g270
g1202
tp1628
a(g167
g12
g1202
tp1629
a(g33
g275
g1202
tp1630
a(g411
g91
g1202
tp1631
a(g91
g132
g1202
tp1632
a(g844
g125
g1202
tp1633
a(g63
g193
g1202
tp1634
a(g2
g242
g1202
tp1635
a(g471
g91
g1202
tp1636
a(g88
g29
g1202
tp1637
a(g39
g404
g1202
tp1638
a(g395
g91
g1202
tp1639
a(g219
g226
g1202
tp1640
a(g8
g360
g1202
tp1641
a(g550
g14
g1202
tp1642
a(g180
g35
g1202
tp1643
a(g221
g50
g1202
tp1644
a(g169
g192
g1202
tp1645
a(g296
g444
g1202
tp1646
a(g497
g366
g1202
tp1647
a(g88
g69
g1202
tp1648
a(g21
g179
g1202
tp1649
a(g32
g603
g1202
tp1650
a(g600
g471
g1202
tp1651
a(g77
g179
g1202
tp1652
a(g369
g509
g1202
tp1653
a(g109
g21
g1202
tp1654
a(g139
g38
g1202
tp1655
a(g20
g471
g1202
tp1656
a(g152
g193
g1202
tp1657
a(g284
g5
g1202
tp1658
a(g219
g418
g1202
tp1659
a(g555
g188
g1202
tp1660
a(g250
g603
g1202
tp1661
a(g56
g15
g1202
tp1662
a(g71
g210
g1202
tp1663
a(g389
g243
g1202
tp1664
a(g411
g11
g1202
tp1665
a(g120
g226
g1202
tp1666
a(g9
g1
g1202
tp1667
a(g161
g253
g1202
tp1668
a(g460
g256
g1202
tp1669
a(g132
g180
g1202
tp1670
a(g159
g243
g1202
tp1671
a(g23
g12
g1202
tp1672
a(g35
g320
g1202
tp1673
a(g152
g360
g1202
tp1674
a(g146
g158
g1202
tp1675
a(g154
g156
g1202
tp1676
a(g24
g184
g1202
tp1677
a(g80
g5
g1202
tp1678
a(g256
g145
g1202
tp1679
a(g237
g263
g1202
tp1680
a(g240
g288
g1202
tp1681
a(g210
g369
g1202
tp1682
a(g101
g106
g1202
tp1683
a(g88
g223
g1202
tp1684
a(g430
g256
g1202
tp1685
a(g61
g106
g1202
tp1686
a(g286
g134
g1202
tp1687
a(g145
g395
g1202
tp1688
a(g260
g66
g1202
tp1689
a(g230
g66
g1202
tp1690
a(g89
g15
g1202
tp1691
a(g268
g38
g1202
tp1692
a(g45
g395
g1202
tp1693
a(g6
g503
g1202
tp1694
a(g30
g266
g1202
tp1695
a(g129
g408
g1202
tp1696
a(g41
g23
g1202
tp1697
a(g310
g91
g1202
tp1698
a(g67
g177
g1202
tp1699
a(g27
g192
g1202
tp1700
a(g146
g591
g1202
tp1701
a(g18
g444
g1202
tp1702
a(g408
g111
g1202
tp1703
a(g242
g210
g1202
tp1704
a(g603
g404
g1202
tp1705
a(g24
g61
g1202
tp1706
a(g776
g284
g1202
tp1707
a(g100
g66
g1202
tp1708
a(g106
g284
g1202
tp1709
a(g101
g185
g1202
tp1710
a(g460
g53
g1202
tp1711
a(g286
g17
g1202
tp1712
a(g2
g776
g1202
tp1713
a(g137
g79
g1202
tp1714
a(g288
g366
g1202
tp1715
a(g509
g11
g1202
tp1716
a(g334
g137
g1202
tp1717
a(g63
g108
g1202
tp1718
a(g245
g185
g1202
tp1719
a(g33
g53
g1202
tp1720
a(g185
g208
g1202
tp1721
a(g342
g145
g1202
tp1722
a(g462
g300
g1202
tp1723
a(g256
g125
g1202
tp1724
a(g273
g158
g1202
tp1725
a(g129
g418
g1202
tp1726
a(g877
g79
g1202
tp1727
a(g76
g154
g1202
tp1728
a(g42
g308
g1202
tp1729
a(g427
g418
g1202
tp1730
a(g24
g603
g1202
tp1731
a(g215
g334
g1202
tp1732
a(g45
g198
g1202
tp1733
a(g223
g591
g1202
tp1734
a(g85
g444
g1202
tp1735
a(g177
g360
g1202
tp1736
a(g41
g219
g1202
tp1737
a(g210
g292
g1202
tp1738
a(g15
g106
g1202
tp1739
a(g165
g50
g1202
tp1740
a(g349
g219
g1202
tp1741
a(g109
g468
g1202
tp1742
a(g603
g366
g1202
tp1743
a(g877
g85
g1202
tp1744
a(g189
g253
g1202
tp1745
a(g120
g440
g1202
tp1746
a(g213
g8
g1202
tp1747
a(g288
g217
g1202
tp1748
a(g555
g334
g1202
tp1749
a(g15
g142
g1202
tp1750
a(g159
g210
g1202
tp1751
a(g471
g251
g1202
tp1752
a(g143
g150
g1202
tp1753
a(g14
g179
g1202
tp1754
a(g152
g217
g1202
tp1755
a(g195
g256
g1202
tp1756
a(g54
g300
g1202
tp1757
a(g67
g233
g1202
tp1758
a(g692
g9
g1202
tp1759
a(g288
g408
g1202
tp1760
a(g142
g77
g1202
tp1761
a(g32
g142
g1202
tp1762
a(g118
g242
g1202
tp1763
a(g89
g111
g1202
tp1764
a(g8
g61
g1202
tp1765
a(g80
g38
g1202
tp1766
a(g159
g47
g1202
tp1767
a(g21
g73
g1202
tp1768
a(g165
g226
g1202
tp1769
a(g76
g132
g1202
tp1770
a(g14
g53
g1202
tp1771
a(g310
g360
g1202
tp1772
a(g137
g331
g1202
tp1773
a(g142
g20
g1202
tp1774
a(g497
g270
g1202
tp1775
a(g251
g177
g1202
tp1776
a(g41
g471
g1202
tp1777
a(g369
g440
g1202
tp1778
a(g145
g497
g1202
tp1779
a(g50
g104
g1202
tp1780
a(g148
g106
g1202
tp1781
a(g196
g776
g1202
tp1782
a(g64
g48
g1202
tp1783
a(g450
g66
g1202
tp1784
a(g134
g548
g1202
tp1785
a(g251
g29
g1202
tp1786
a(g100
g440
g1202
tp1787
a(g45
g17
g1202
tp1788
a(g250
g444
g1202
tp1789
a(g460
g553
g1202
tp1790
a(g555
g94
g1202
tp1791
a(g280
g179
g1202
tp1792
a(g430
g242
g1202
tp1793
a(g54
g104
g1202
tp1794
a(g273
g210
g1202
tp1795
a(g198
g172
g1202
tp1796
a(g550
g240
g1202
tp1797
a(g180
g48
g1202
tp1798
a(g206
g282
g1202
tp1799
a(g233
g300
g1202
tp1800
a(g44
g342
g1202
tp1801
a(g444
g137
g1202
tp1802
a(g82
g29
g1202
tp1803
a(g268
g256
g1202
tp1804
a(g444
g251
g1202
tp1805
a(g150
g243
g1202
tp1806
a(g129
g146
g1202
tp1807
a(g152
g17
g1202
tp1808
a(g215
g9
g1202
tp1809
a(g45
g128
g1202
tp1810
a(g251
g158
g1202
tp1811
a(g240
g404
g1202
tp1812
a(g322
g128
g1202
tp1813
a(g237
g292
g1202
tp1814
a(g11
g91
g1202
tp1815
a(g2
g91
g1202
tp1816
a(g233
g47
g1202
tp1817
a(g80
g232
g1202
tp1818
a(g152
g117
g1202
tp1819
a(g208
g79
g1202
tp1820
a(g91
g156
g1202
tp1821
a(g310
g32
g1202
tp1822
a(g226
g27
g1202
tp1823
a(g33
g471
g1202
tp1824
a(g54
g12
g1202
tp1825
a(g278
g389
g1202
tp1826
a(g6
g256
g1202
tp1827
a(g167
g73
g1202
tp1828
a(g129
g158
g1202
tp1829
a(g106
g39
g1202
tp1830
a(g85
g146
g1202
tp1831
a(g600
g15
g1202
tp1832
a(g152
g20
g1202
tp1833
a(g322
g196
g1202
tp1834
a(g63
g103
g1202
tp1835
a(g150
g23
g1202
tp1836
a(g111
g430
g1202
tp1837
a(g177
g553
g1202
tp1838
a(g159
g111
g1202
tp1839
a(g18
g114
g1202
tp1840
a(g268
g427
g1202
tp1841
a(g36
g23
g1202
tp1842
a(g100
g444
g1202
tp1843
a(g9
g177
g1202
tp1844
a(g161
g369
g1202
tp1845
a(g146
g408
g1202
tp1846
a(g450
g50
g1202
tp1847
a(g185
g195
g1202
tp1848
a(g82
g237
g1202
tp1849
a(g36
g125
g1202
tp1850
a(g202
g776
g1202
tp1851
a(g128
g58
g1202
tp1852
a(g159
g230
g1202
tp1853
a(g273
g79
g1202
tp1854
a(g263
g462
g1202
tp1855
a(g71
g156
g1202
tp1856
a(g242
g408
g1202
tp1857
a(g440
g47
g1202
tp1858
a(g148
g104
g1202
tp1859
a(g118
g206
g1202
tp1860
a(g134
g250
g1202
tp1861
a(g411
g226
g1202
tp1862
a(g23
g440
g1202
tp1863
a(g210
g41
g1202
tp1864
a(g322
g184
g1202
tp1865
a(g128
g148
g1202
tp1866
a(g154
g150
g1202
tp1867
a(g206
g288
g1202
tp1868
a(g342
g217
g1202
tp1869
a(g411
g260
g1202
tp1870
a(g67
g76
g1202
tp1871
a(g98
g48
g1202
tp1872
a(g822
g550
g1202
tp1873
a(g24
g73
g1202
tp1874
a(g12
g366
g1202
tp1875
a(g108
g103
g1202
tp1876
a(g139
g242
g1202
tp1877
a(g442
g284
g1202
tp1878
a(g91
g284
g1202
tp1879
a(g273
g266
g1202
tp1880
a(g268
g134
g1202
tp1881
a(g215
g92
g1202
tp1882
a(g11
g844
g1202
tp1883
a(g142
g114
g1202
tp1884
a(g61
g11
g1202
tp1885
a(g108
g26
g1202
tp1886
a(g219
g404
g1202
tp1887
a(g300
g509
g1202
tp1888
a(g118
g106
g1202
tp1889
a(g270
g284
g1202
tp1890
a(g213
g137
g1202
tp1891
a(g64
g219
g1202
tp1892
a(g117
g550
g1202
tp1893
a(g6
g38
g1202
tp1894
a(g195
g503
g1202
tp1895
a(g117
g108
g1202
tp1896
a(g278
g308
g1202
tp1897
a(g232
g292
g1202
tp1898
a(g27
g108
g1202
tp1899
a(g125
g150
g1202
tp1900
a(g83
g117
g1202
tp1901
a(g33
g430
g1202
tp1902
a(g64
g462
g1202
tp1903
a(g76
g111
g1202
tp1904
a(g18
g258
g1202
tp1905
a(g237
g137
g1202
tp1906
a(g148
g14
g1202
tp1907
a(g154
g471
g1202
tp1908
a(g286
g184
g1202
tp1909
a(g776
g206
g1202
tp1910
a(g120
g366
g1202
tp1911
a(g12
g346
g1202
tp1912
a(g50
g462
g1202
tp1913
a(g308
g195
g1202
tp1914
a(g430
g404
g1202
tp1915
a(g36
g652
g1202
tp1916
a(g877
g104
g1202
tp1917
a(g100
g251
g1202
tp1918
a(g161
g27
g1202
tp1919
a(g308
g17
g1202
tp1920
a(g169
g21
g1202
tp1921
a(g152
g69
g1202
tp1922
a(g129
g128
g1202
tp1923
a(g41
g444
g1202
tp1924
a(g139
g427
g1202
tp1925
a(g600
g39
g1202
tp1926
a(g822
g94
g1202
tp1927
a(g219
g8
g1202
tp1928
a(g161
g192
g1202
tp1929
a(g23
g188
g1202
tp1930
a(g154
g193
g1202
tp1931
a(g177
g146
g1202
tp1932
a(g223
g172
g1202
tp1933
a(g877
g230
g1202
tp1934
a(g213
g242
g1202
tp1935
a(g137
g217
g1202
tp1936
a(g24
g111
g1202
tp1937
a(g334
g210
g1202
tp1938
a(g270
g132
g1202
tp1939
a(g215
g202
g1202
tp1940
a(g268
g48
g1202
tp1941
a(g142
g135
g1202
tp1942
a(g286
g692
g1202
tp1943
a(g128
g263
g1202
tp1944
a(g278
g135
g1202
tp1945
a(g139
g366
g1202
tp1946
a(g411
g92
g1202
tp1947
a(g132
g179
g1202
tp1948
a(g320
g230
g1202
tp1949
a(g200
g94
g1202
tp1950
a(g109
g92
g1202
tp1951
a(g462
g603
g1202
tp1952
a(g226
g256
g1202
tp1953
a(g322
g503
g1202
tp1954
a(g240
g408
g1202
tp1955
a(g88
g270
g1202
tp1956
a(g114
g322
g1202
tp1957
a(g877
g137
g1202
tp1958
a(g342
g53
g1202
tp1959
a(g260
g39
g1202
tp1960
a(g444
g286
g1202
tp1961
a(g240
g135
g1202
tp1962
a(g154
g430
g1202
tp1963
a(g11
g223
g1202
tp1964
a(g91
g103
g1202
tp1965
a(g148
g349
g1202
tp1966
a(g35
g288
g1202
tp1967
a(g24
g360
g1202
tp1968
a(g550
g206
g1202
tp1969
a(g652
g503
g1202
tp1970
a(g600
g167
g1202
tp1971
a(g395
g230
g1202
tp1972
a(g100
g503
g1202
tp1973
a(g219
g92
g1202
tp1974
a(g131
g23
g1202
tp1975
a(g101
g114
g1202
tp1976
a(g109
g430
g1202
tp1977
a(g322
g50
g1202
tp1978
a(g400
g158
g1202
tp1979
a(g286
g103
g1202
tp1980
a(g9
g242
g1202
tp1981
a(g462
g210
g1202
tp1982
a(g292
g286
g1202
tp1983
a(g125
g217
g1202
tp1984
a(g418
g275
g1202
tp1985
a(g2
g250
g1202
tp1986
a(g308
g47
g1202
tp1987
a(g21
g58
g1202
tp1988
a(g189
g66
g1202
tp1989
a(g389
g94
g1202
tp1990
a(g18
g177
g1202
tp1991
a(g202
g360
g1202
tp1992
a(g20
g263
g1202
tp1993
a(g1
g360
g1202
tp1994
a(g314
g320
g1202
tp1995
a(g450
g232
g1202
tp1996
a(g300
g369
g1202
tp1997
a(g41
g167
g1202
tp1998
a(g776
g91
g1202
tp1999
a(g310
g322
g1202
tp2000
a(g200
g844
g1202
tp2001
a(g63
g188
g1202
tp2002
a(g243
g320
g1202
tp2003
a(g497
g692
g1202
tp2004
a(g29
g48
g1202
tp2005
a(g61
g58
g1202
tp2006
a(g177
g154
g1202
tp2007
a(g120
g600
g1202
tp2008
a(g509
g50
g1202
tp2009
a(g88
g286
g1202
tp2010
a(g180
g26
g1202
tp2011
a(g96
g652
g1202
tp2012
a(g26
g12
g1202
tp2013
a(g24
g300
g1202
tp2014
a(g245
g96
g1202
tp2015
a(g129
g652
g1202
tp2016
a(g159
g132
g1202
tp2017
a(g42
g462
g1202
tp2018
a(g122
g179
g1202
tp2019
a(g600
g408
g1202
tp2020
a(g89
g14
g1202
tp2021
a(g462
g76
g1202
tp2022
a(g132
g1
g1202
tp2023
a(g38
g91
g1202
tp2024
a(g61
g196
g1202
tp2025
a(g337
g150
g1202
tp2026
a(g154
g550
g1202
tp2027
a(g6
g652
g1202
tp2028
a(g268
g5
g1202
tp2029
a(g145
g135
g1202
tp2030
a(g120
g331
g1202
tp2031
a(g63
g603
g1202
tp2032
a(g161
g603
g1202
tp2033
a(g86
g41
g1202
tp2034
a(g776
g6
g1202
tp2035
a(g77
g242
g1202
tp2036
a(g652
g548
g1202
tp2037
a(g213
g158
g1202
tp2038
a(g80
g111
g1202
tp2039
a(g129
g213
g1202
tp2040
a(g400
g366
g1202
tp2041
a(g395
g322
g1202
tp2042
a(g148
g85
g1202
tp2043
a(g42
g146
g1202
tp2044
a(g215
g82
g1202
tp2045
a(g822
g106
g1202
tp2046
a(g284
g48
g1202
tp2047
a(g408
g600
g1202
tp2048
a(g292
g471
g1202
tp2049
a(g59
g189
g1202
tp2050
a(g120
g263
g1202
tp2051
a(g270
g314
g1202
tp2052
a(g497
g23
g1202
tp2053
a(g346
g219
g1202
tp2054
a(g497
g94
g1202
tp2055
a(g223
g131
g1202
tp2056
a(g114
g877
g1202
tp2057
a(g139
g9
g1202
tp2058
a(g210
g15
g1202
tp2059
a(g26
g172
g1202
tp2060
a(g268
g154
g1202
tp2061
a(g15
g85
g1202
tp2062
a(g450
g135
g1202
tp2063
a(g161
g69
g1202
tp2064
a(g42
g213
g1202
tp2065
a(g200
g242
g1202
tp2066
a(g600
g322
g1202
tp2067
a(g125
g11
g1202
tp2068
a(g11
g73
g1202
tp2069
a(g74
g12
g1202
tp2070
a(g8
g47
g1202
tp2071
a(g21
g263
g1202
tp2072
a(g282
g11
g1202
tp2073
a(g200
g418
g1202
tp2074
a(g98
g2
g1202
tp2075
a(g411
g243
g1202
tp2076
a(g12
g92
g1202
tp2077
a(g776
g195
g1202
tp2078
a(g89
g189
g1202
tp2079
a(g251
g308
g1202
tp2080
a(g242
g77
g1202
tp2081
a(g877
g208
g1202
tp2082
a(g550
g134
g1202
tp2083
a(g134
g346
g1202
tp2084
a(g104
g210
g1202
tp2085
a(g59
g58
g1202
tp2086
a(g503
g334
g1202
tp2087
a(g29
g154
g1202
tp2088
a(g118
g226
g1202
tp2089
a(g161
g263
g1202
tp2090
a(g219
g142
g1202
tp2091
a(g44
g208
g1202
tp2092
a(g30
g418
g1202
tp2093
a(g44
g346
g1202
tp2094
a(g50
g240
g1202
tp2095
a(g444
g366
g1202
tp2096
a(g118
g53
g1202
tp2097
a(g442
g92
g1202
tp2098
a(g132
g497
g1202
tp2099
a(g101
g21
g1202
tp2100
a(g129
g114
g1202
tp2101
a(g39
g553
g1202
tp2102
a(g139
g44
g1202
tp2103
a(g509
g38
g1202
tp2104
a(g444
g150
g1202
tp2105
a(g1
g260
g1202
tp2106
a(g308
g320
g1202
tp2107
a(g185
g132
g1202
tp2108
a(g117
g1
g1202
tp2109
a(g300
g44
g1202
tp2110
a(g88
g600
g1202
tp2111
a(g45
g275
g1202
tp2112
a(g349
g331
g1202
tp2113
a(g256
g154
g1202
tp2114
a(g58
g195
g1202
tp2115
a(g56
g223
g1202
tp2116
a(g240
g48
g1202
tp2117
a(g148
g94
g1202
tp2118
a(g202
g366
g1202
tp2119
a(g108
g27
g1202
tp2120
a(g143
g167
g1202
tp2121
a(g346
g300
g1202
tp2122
a(g360
g253
g1202
tp2123
a(g74
g156
g1202
tp2124
a(g18
g250
g1202
tp2125
a(g143
g509
g1202
tp2126
a(g322
g14
g1202
tp2127
a(g44
g242
g1202
tp2128
a(g98
g198
g1202
tp2129
a(g35
g503
g1202
tp2130
a(g41
g427
g1202
tp2131
a(g15
g79
g1202
tp2132
a(g237
g134
g1202
tp2133
a(g280
g389
g1202
tp2134
a(g189
g193
g1202
tp2135
a(g27
g591
g1202
tp2136
a(g233
g53
g1202
tp2137
a(g411
g66
g1202
tp2138
a(g129
g217
g1202
tp2139
a(g98
g1
g1202
tp2140
a(g245
g111
g1202
tp2141
a(g240
g462
g1202
tp2142
a(g159
g202
g1202
tp2143
a(g6
g26
g1202
tp2144
a(g237
g111
g1202
tp2145
a(g555
g300
g1202
tp2146
a(g349
g66
g1202
tp2147
a(g314
g5
g1202
tp2148
a(g497
g12
g1202
tp2149
a(g221
g349
g1202
tp2150
a(g503
g360
g1202
tp2151
a(g692
g430
g1202
tp2152
a(g135
g266
g1202
tp2153
a(g202
g21
g1202
tp2154
a(g142
g300
g1202
tp2155
a(g509
g232
g1202
tp2156
a(g38
g223
g1202
tp2157
a(g27
g5
g1202
tp2158
a(g33
g1
g1202
tp2159
a(g109
g266
g1202
tp2160
a(g27
g132
g1202
tp2161
a(g125
g256
g1202
tp2162
a(g233
g256
g1202
tp2163
a(g278
g66
g1202
tp2164
a(g9
g468
g1202
tp2165
a(g71
g192
g1202
tp2166
a(g250
g135
g1202
tp2167
a(g310
g553
g1202
tp2168
a(g66
g232
g1202
tp2169
a(g71
g217
g1202
tp2170
a(g56
g260
g1202
tp2171
a(g21
g822
g1202
tp2172
a(g18
g308
g1202
tp2173
a(g408
g418
g1202
tp2174
a(g215
g38
g1202
tp2175
a(g80
g509
g1202
tp2176
a(g152
g35
g1202
tp2177
a(g230
g188
g1202
tp2178
a(g82
g94
g1202
tp2179
a(g418
g217
g1202
tp2180
a(g66
g111
g1202
tp2181
a(g603
g198
g1202
tp2182
a(g167
g440
g1202
tp2183
a(g776
g192
g1202
tp2184
a(g310
g29
g1202
tp2185
a(g198
g320
g1202
tp2186
a(g27
g135
g1202
tp2187
a(g442
g91
g1202
tp2188
a(g233
g103
g1202
tp2189
a(g128
g5
g1202
tp2190
a(g26
g131
g1202
tp2191
a(g88
g591
g1202
tp2192
a(g29
g15
g1202
tp2193
a(g59
g137
g1202
tp2194
a(g61
g172
g1202
tp2195
a(g39
g591
g1202
tp2196
a(g21
g41
g1202
tp2197
a(g129
g240
g1202
tp2198
a(g27
g82
g1202
tp2199
a(g273
g21
g1202
tp2200
a(g256
g250
g1202
tp2201
a(g282
g131
g1202
tp2202
a(S'(~(p<q)&q)'
p2203
g132
S'contradiction'
p2204
tp2205
a(S'~(q<(p=p))'
p2206
g63
g2204
tp2207
a(g2203
g18
g2204
tp2208
a(g38
S'~(q=q)'
p2209
g2204
tp2210
a(S'~(q<q)'
p2211
g471
g2204
tp2212
a(g188
g77
g2204
tp2213
a(g237
S'~(p=p)'
p2214
g2204
tp2215
a(g156
g85
g2204
tp2216
a(g553
g404
g2204
tp2217
a(g47
g548
g2204
tp2218
a(S'~((q<p)|q)'
p2219
g213
g2204
tp2220
a(g360
g2206
g2204
tp2221
a(S'~(p=(p|p))'
p2222
g206
g2204
tp2223
a(g17
g106
g2204
tp2224
a(g5
g509
g2204
tp2225
a(g82
g76
g2204
tp2226
a(g2209
g256
g2204
tp2227
a(g2203
g210
g2204
tp2228
a(g8
g76
g2204
tp2229
a(g418
g76
g2204
tp2230
a(g260
g2219
g2204
tp2231
a(S'~(q<(q=q))'
p2232
g600
g2204
tp2233
a(g108
g66
g2204
tp2234
a(g2206
g258
g2204
tp2235
a(g154
g53
g2204
tp2236
a(g2
g468
g2204
tp2237
a(g189
g266
g2204
tp2238
a(g395
g66
g2204
tp2239
a(S'(q=~(q&q))'
p2240
g1
g2204
tp2241
a(g158
g369
g2204
tp2242
a(g2211
g131
g2204
tp2243
a(g2211
g50
g2204
tp2244
a(g188
g2232
g2204
tp2245
a(g66
g8
g2204
tp2246
a(g77
g2209
g2204
tp2247
a(g159
g2203
g2204
tp2248
a(g600
g509
g2204
tp2249
a(g2206
g11
g2204
tp2250
a(g26
g2206
g2204
tp2251
a(g17
g2209
g2204
tp2252
a(g172
g652
g2204
tp2253
a(g2203
g15
g2204
tp2254
a(g2222
g114
g2204
tp2255
a(g114
g2206
g2204
tp2256
a(g548
g20
g2204
tp2257
a(g2240
g125
g2204
tp2258
a(g189
g69
g2204
tp2259
a(g2209
g146
g2204
tp2260
a(g135
g77
g2204
tp2261
a(g24
g2203
g2204
tp2262
a(g145
g2209
g2204
tp2263
a(g460
g2214
g2204
tp2264
a(g196
g266
g2204
tp2265
a(g2232
g444
g2204
tp2266
a(g591
g652
g2204
tp2267
a(g69
g38
g2204
tp2268
a(g69
g92
g2204
tp2269
a(g468
g131
g2204
tp2270
a(g266
g2222
g2204
tp2271
a(g193
g219
g2204
tp2272
a(g184
g251
g2204
tp2273
a(g158
g408
g2204
tp2274
a(g2214
g278
g2204
tp2275
a(g548
g58
g2204
tp2276
a(g2
g2203
g2204
tp2277
a(g273
g69
g2204
tp2278
a(g322
g404
g2204
tp2279
a(S'~(q|(q<p))'
p2280
g143
g2204
tp2281
a(g48
g2232
g2204
tp2282
a(g156
g167
g2204
tp2283
a(g468
g148
g2204
tp2284
a(S'(q&~(q&q))'
p2285
g237
g2204
tp2286
a(g243
g2211
g2204
tp2287
a(g139
g2222
g2204
tp2288
a(g2280
g58
g2204
tp2289
a(g2222
g74
g2204
tp2290
a(g20
g2222
g2204
tp2291
a(g692
g243
g2204
tp2292
a(g2209
g2203
g2204
tp2293
a(g103
g652
g2204
tp2294
a(g17
g154
g2204
tp2295
a(g79
g266
g2204
tp2296
a(g360
g2214
g2204
tp2297
a(g108
g58
g2204
tp2298
a(g104
g2232
g2204
tp2299
a(g108
g156
g2204
tp2300
a(g12
g193
g2204
tp2301
a(g2219
g284
g2204
tp2302
a(g292
g2206
g2204
tp2303
a(g88
g2209
g2204
tp2304
a(g2209
g2
g2204
tp2305
a(g73
g184
g2204
tp2306
a(g2203
g67
g2204
tp2307
a(g193
g108
g2204
tp2308
a(g30
g2209
g2204
tp2309
a(g2285
g366
g2204
tp2310
a(g266
g2209
g2204
tp2311
a(g2214
g26
g2204
tp2312
a(g69
g260
g2204
tp2313
a(g300
g284
g2204
tp2314
a(g192
g314
g2204
tp2315
a(g245
g2285
g2204
tp2316
a(g2203
g150
g2204
tp2317
a(g86
g2280
g2204
tp2318
a(g2206
g76
g2204
tp2319
a(g418
g17
g2204
tp2320
a(g77
g184
g2204
tp2321
a(g2280
g20
g2204
tp2322
a(g50
g66
g2204
tp2323
a(g360
g258
g2204
tp2324
a(g2232
g108
g2204
tp2325
a(g2285
g189
g2204
tp2326
a(g15
g2285
g2204
tp2327
a(g427
g553
g2204
tp2328
a(g215
g2222
g2204
tp2329
a(g2219
g120
g2204
tp2330
a(g2203
g360
g2204
tp2331
a(g2285
g117
g2204
tp2332
a(g36
g2222
g2204
tp2333
a(g286
g2219
g2204
tp2334
a(g462
g692
g2204
tp2335
a(g2211
g233
g2204
tp2336
a(g258
g206
g2204
tp2337
a(g64
g2214
g2204
tp2338
a(g210
g2280
g2204
tp2339
a(g2232
g134
g2204
tp2340
a(g243
g17
g2204
tp2341
a(g82
g2211
g2204
tp2342
a(g2285
g270
g2204
tp2343
a(g2219
g33
g2204
tp2344
a(g17
g600
g2204
tp2345
a(g148
g2209
g2204
tp2346
a(g444
g331
g2204
tp2347
a(g192
g103
g2204
tp2348
a(g2240
g8
g2204
tp2349
a(g2209
g2219
g2204
tp2350
a(g652
g32
g2204
tp2351
a(g154
g2209
g2204
tp2352
a(g468
g320
g2204
tp2353
a(g128
g69
g2204
tp2354
a(g193
g418
g2204
tp2355
a(g360
g69
g2204
tp2356
a(g184
g210
g2204
tp2357
a(g58
g503
g2204
tp2358
a(g66
g184
g2204
tp2359
a(g148
g2206
g2204
tp2360
a(g548
g250
g2204
tp2361
a(g692
g250
g2204
tp2362
a(g2280
g408
g2204
tp2363
a(g440
g58
g2204
tp2364
a(g2211
g600
g2204
tp2365
a(g2214
g308
g2204
tp2366
a(g300
g2222
g2204
tp2367
a(g548
g117
g2204
tp2368
a(g2219
g109
g2204
tp2369
a(g39
g471
g2204
tp2370
a(g2280
g184
g2204
tp2371
a(g2211
g103
g2204
tp2372
a(g331
g69
g2204
tp2373
a(g230
g266
g2204
tp2374
a(g73
g548
g2204
tp2375
a(g117
g69
g2204
tp2376
a(g17
g2219
g2204
tp2377
a(g217
g2280
g2204
tp2378
a(g69
g242
g2204
tp2379
a(g210
g177
g2204
tp2380
a(g2240
g154
g2204
tp2381
a(g2240
g219
g2204
tp2382
a(g652
g2211
g2204
tp2383
a(g233
g2280
g2204
tp2384
a(g32
g652
g2204
tp2385
a(g192
g395
g2204
tp2386
a(g2209
g2211
g2204
tp2387
a(g6
g2206
g2204
tp2388
a(g2214
g206
g2204
tp2389
a(g2211
g148
g2204
tp2390
a(g230
g652
g2204
tp2391
a(g2203
g14
g2204
tp2392
a(g591
g844
g2204
tp2393
a(g2214
g334
g2204
tp2394
a(g2219
g106
g2204
tp2395
a(g146
g2219
g2204
tp2396
a(g389
g193
g2204
tp2397
a(g158
g509
g2204
tp2398
a(g92
g2211
g2204
tp2399
a(g284
g471
g2204
tp2400
a(g2222
g275
g2204
tp2401
a(g2211
g360
g2204
tp2402
a(g106
g2211
g2204
tp2403
a(g2280
g210
g2204
tp2404
a(g822
g85
g2204
tp2405
a(g652
g172
g2204
tp2406
a(g2206
g167
g2204
tp2407
a(g266
g128
g2204
tp2408
a(g440
g2240
g2204
tp2409
a(g12
g192
g2204
tp2410
a(g35
g692
g2204
tp2411
a(g131
g156
g2204
tp2412
a(g48
g2209
g2204
tp2413
a(g2209
g85
g2204
tp2414
a(g2285
g135
g2204
tp2415
a(g2280
g366
g2204
tp2416
a(g35
g2209
g2204
tp2417
a(g137
g172
g2204
tp2418
a(g509
g111
g2204
tp2419
a(g96
g2211
g2204
tp2420
a(g2219
g331
g2204
tp2421
a(g2209
g185
g2204
tp2422
a(g2285
g411
g2204
tp2423
a(g2214
g117
g2204
tp2424
a(g2232
g26
g2204
tp2425
a(g404
g2203
g2204
tp2426
a(g2219
g58
g2204
tp2427
a(g349
g266
g2204
tp2428
a(g196
g2203
g2204
tp2429
a(g2285
g118
g2204
tp2430
a(g444
g5
g2204
tp2431
a(g2214
g2219
g2204
tp2432
a(g101
g2232
g2204
tp2433
a(g548
g35
g2204
tp2434
a(g76
g320
g2204
tp2435
a(g411
g2232
g2204
tp2436
a(g230
g2209
g2204
tp2437
a(g2280
g2214
g2204
tp2438
a(g822
g2219
g2204
tp2439
a(g2209
g278
g2204
tp2440
a(g844
g2209
g2204
tp2441
a(g2232
g442
g2204
tp2442
a(g275
g2206
g2204
tp2443
a(g296
g2285
g2204
tp2444
a(g2219
g53
g2204
tp2445
a(g172
g509
g2204
tp2446
a(g158
g58
g2204
tp2447
a(g17
g12
g2204
tp2448
a(g2203
g79
g2204
tp2449
a(g2280
g270
g2204
tp2450
a(g408
g158
g2204
tp2451
a(g193
g132
g2204
tp2452
a(g53
g2211
g2204
tp2453
a(g2206
g114
g2204
tp2454
a(g69
g553
g2204
tp2455
a(g2280
g266
g2204
tp2456
a(g240
g2206
g2204
tp2457
a(g2240
g548
g2204
tp2458
a(g2280
g83
g2204
tp2459
a(g76
g2211
g2204
tp2460
a(g29
g47
g2204
tp2461
a(g184
g61
g2204
tp2462
a(g58
g553
g2204
tp2463
a(g260
g258
g2204
tp2464
a(g56
g2285
g2204
tp2465
a(g2222
g2214
g2204
tp2466
a(g74
g53
g2204
tp2467
a(g243
g2240
g2204
tp2468
a(g192
g258
g2204
tp2469
a(g444
g188
g2204
tp2470
a(g266
g208
g2204
tp2471
a(g108
g468
g2204
tp2472
a(g263
g2232
g2204
tp2473
a(g24
g2209
g2204
tp2474
a(g2232
g331
g2204
tp2475
a(g548
g210
g2204
tp2476
a(g2219
g104
g2204
tp2477
a(g66
g96
g2204
tp2478
a(g2285
g58
g2204
tp2479
a(g240
g2211
g2204
tp2480
a(g17
g320
g2204
tp2481
a(g135
g2211
g2204
tp2482
a(g2240
g48
g2204
tp2483
a(g154
g2214
g2204
tp2484
a(g213
g2285
g2204
tp2485
a(g179
g553
g2204
tp2486
a(g103
g844
g2204
tp2487
a(g219
g172
g2204
tp2488
a(g2203
g245
g2204
tp2489
a(g94
g2206
g2204
tp2490
a(g369
g591
g2204
tp2491
a(g2203
g292
g2204
tp2492
a(g2203
g94
g2204
tp2493
a(g300
g2209
g2204
tp2494
a(g179
g2206
g2204
tp2495
a(g2209
g61
g2204
tp2496
a(g21
g2280
g2204
tp2497
a(g2285
g395
g2204
tp2498
a(g450
g2285
g2204
tp2499
a(g2209
g80
g2204
tp2500
a(g137
g2280
g2204
tp2501
a(g471
g150
g2204
tp2502
a(g85
g2214
g2204
tp2503
a(g17
g223
g2204
tp2504
a(g548
g145
g2204
tp2505
a(g27
g266
g2204
tp2506
a(g2214
g2209
g2204
tp2507
a(g20
g2211
g2204
tp2508
a(g154
g17
g2204
tp2509
a(g142
g2203
g2204
tp2510
a(g206
g2206
g2204
tp2511
a(g292
g2214
g2204
tp2512
a(g509
g2219
g2204
tp2513
a(g134
g2240
g2204
tp2514
a(g193
g603
g2204
tp2515
a(g2219
g260
g2204
tp2516
a(g17
g366
g2204
tp2517
a(g92
g2209
g2204
tp2518
a(g156
g82
g2204
tp2519
a(g156
g240
g2204
tp2520
a(g2203
g101
g2204
tp2521
a(g2285
g822
g2204
tp2522
a(g2211
g108
g2204
tp2523
a(g2214
g18
g2204
tp2524
a(g275
g2240
g2204
tp2525
a(g548
g404
g2204
tp2526
a(g2214
g503
g2204
tp2527
a(g2222
g67
g2204
tp2528
a(g189
g652
g2204
tp2529
a(g38
g172
g2204
tp2530
a(g2280
g2211
g2204
tp2531
a(g69
g32
g2204
tp2532
a(g53
g74
g2204
tp2533
a(g73
g2206
g2204
tp2534
a(g331
g692
g2204
tp2535
a(g109
g2222
g2204
tp2536
a(g497
g591
g2204
tp2537
a(g35
g69
g2204
tp2538
a(g17
g418
g2204
tp2539
a(g548
g2222
g2204
tp2540
a(g260
g652
g2204
tp2541
a(g195
g2280
g2204
tp2542
a(g118
g2214
g2204
tp2543
a(g509
g32
g2204
tp2544
a(g2209
g188
g2204
tp2545
a(g2222
g26
g2204
tp2546
a(g462
g17
g2204
tp2547
a(g548
g366
g2204
tp2548
a(g2222
g553
g2204
tp2549
a(g253
g2280
g2204
tp2550
a(g2203
g152
g2204
tp2551
a(g91
g2222
g2204
tp2552
a(g468
g226
g2204
tp2553
a(g2232
g2
g2204
tp2554
a(g142
g2214
g2204
tp2555
a(g256
g2232
g2204
tp2556
a(g2240
g251
g2204
tp2557
a(g39
g156
g2204
tp2558
a(g2232
g2232
g2204
tp2559
a(g117
g2240
g2204
tp2560
a(g2240
g288
g2204
tp2561
a(g2
g156
g2204
tp2562
a(g2203
g2219
g2204
tp2563
a(g404
g2219
g2204
tp2564
a(g2209
g118
g2204
tp2565
a(g2219
g193
g2204
tp2566
a(g145
g17
g2204
tp2567
a(g193
g389
g2204
tp2568
a(g2240
g460
g2204
tp2569
a(g172
g82
g2204
tp2570
a(g509
g2214
g2204
tp2571
a(g2203
g24
g2204
tp2572
a(g47
g29
g2204
tp2573
a(g2240
g63
g2204
tp2574
a(g58
g226
g2204
tp2575
a(g192
g440
g2204
tp2576
a(g63
g2214
g2204
tp2577
a(g2214
g11
g2204
tp2578
a(g245
g2203
g2204
tp2579
a(g33
g2240
g2204
tp2580
a(g2222
g200
g2204
tp2581
a(g129
g2240
g2204
tp2582
a(g258
g251
g2204
tp2583
a(g2232
g243
g2204
tp2584
a(g284
g193
g2204
tp2585
a(g11
g192
g2204
tp2586
a(g188
g2222
g2204
tp2587
a(g844
g600
g2204
tp2588
a(g2219
g210
g2204
tp2589
a(g94
g258
g2204
tp2590
a(g444
g404
g2204
tp2591
a(g2240
g77
g2204
tp2592
a(g83
g2203
g2204
tp2593
a(g104
g652
g2204
tp2594
a(g418
g66
g2204
tp2595
a(g548
g111
g2204
tp2596
a(g77
g226
g2204
tp2597
a(g2232
g114
g2204
tp2598
a(g2209
g91
g2204
tp2599
a(g189
g2206
g2204
tp2600
a(g2203
g156
g2204
tp2601
a(g2219
g125
g2204
tp2602
a(g2240
g395
g2204
tp2603
a(g2219
g221
g2204
tp2604
a(g9
g2280
g2204
tp2605
a(g2209
g232
g2204
tp2606
a(g188
g369
g2204
tp2607
a(g82
g156
g2204
tp2608
a(g389
g2206
g2204
tp2609
a(g284
g2232
g2204
tp2610
a(g134
g2214
g2204
tp2611
a(g2240
g58
g2204
tp2612
a(g2222
g245
g2204
tp2613
a(g2285
g196
g2204
tp2614
a(g210
g73
g2204
tp2615
a(g188
g17
g2204
tp2616
a(g2214
g53
g2204
tp2617
a(g35
g17
g2204
tp2618
a(g184
g146
g2204
tp2619
a(g2285
g418
g2204
tp2620
a(g188
g2206
g2204
tp2621
a(g2206
g69
g2204
tp2622
a(g192
g548
g2204
tp2623
a(g2209
g260
g2204
tp2624
a(g2232
g2203
g2204
tp2625
a(g300
g38
g2204
tp2626
a(g430
g2232
g2204
tp2627
a(g251
g2203
g2204
tp2628
a(g44
g2203
g2204
tp2629
a(g2222
g603
g2204
tp2630
a(g185
g2240
g2204
tp2631
a(g2206
g74
g2204
tp2632
a(g2206
g369
g2204
tp2633
a(g223
g69
g2204
tp2634
a(g270
g2219
g2204
tp2635
a(g2285
g258
g2204
tp2636
a(g284
g2203
g2204
tp2637
a(g150
g2280
g2204
tp2638
a(g2285
g548
g2204
tp2639
a(g400
g2214
g2204
tp2640
a(g266
g346
g2204
tp2641
a(g53
g106
g2204
tp2642
a(g2211
g44
g2204
tp2643
a(g172
g320
g2204
tp2644
a(g266
g111
g2204
tp2645
a(g2219
g2
g2204
tp2646
a(g53
g270
g2204
tp2647
a(g156
g5
g2204
tp2648
a(g2240
g230
g2204
tp2649
a(g94
g652
g2204
tp2650
a(g14
g69
g2204
tp2651
a(g2219
g148
g2204
tp2652
a(g2219
g1
g2204
tp2653
a(g2211
g6
g2204
tp2654
a(g2206
g692
g2204
tp2655
a(g2232
g369
g2204
tp2656
a(g692
g26
g2204
tp2657
a(g69
g2232
g2204
tp2658
a(g2209
g320
g2204
tp2659
a(g2203
g154
g2204
tp2660
a(g76
g96
g2204
tp2661
a(g2219
g591
g2204
tp2662
a(g172
g12
g2204
tp2663
a(g79
g66
g2204
tp2664
a(g2211
g63
g2204
tp2665
a(g553
g196
g2204
tp2666
a(g2280
g450
g2204
tp2667
a(g2203
g131
g2204
tp2668
a(g2219
g2285
g2204
tp2669
a(g444
g2211
g2204
tp2670
a(g471
g395
g2204
tp2671
a(g286
g2280
g2204
tp2672
a(g106
g184
g2204
tp2673
a(g548
g2240
g2204
tp2674
a(g38
g193
g2204
tp2675
a(g177
g77
g2204
tp2676
a(g444
g73
g2204
tp2677
a(g103
g776
g2204
tp2678
a(g310
g2206
g2204
tp2679
a(g270
g266
g2204
tp2680
a(g652
g462
g2204
tp2681
a(g2206
g280
g2204
tp2682
a(g202
g2280
g2204
tp2683
a(g122
g2285
g2204
tp2684
a(g2280
g73
g2204
tp2685
a(g188
g156
g2204
tp2686
a(g2211
g137
g2204
tp2687
a(g5
g444
g2204
tp2688
a(g73
g444
g2204
tp2689
a(g2222
g184
g2204
tp2690
a(g258
g26
g2204
tp2691
a(g27
g69
g2204
tp2692
a(g80
g2280
g2204
tp2693
a(g509
g92
g2204
tp2694
a(g282
g2219
g2204
tp2695
a(g2232
g411
g2204
tp2696
a(g440
g2211
g2204
tp2697
a(g2222
g1
g2204
tp2698
a(g2203
g69
g2204
tp2699
a(g258
g284
g2204
tp2700
a(g2219
g36
g2204
tp2701
a(g156
g450
g2204
tp2702
a(g2219
g5
g2204
tp2703
a(g692
g331
g2204
tp2704
a(g69
g1
g2204
tp2705
a(g2280
g104
g2204
tp2706
a(g2285
g243
g2204
tp2707
a(g73
g17
g2204
tp2708
a(g47
g266
g2204
tp2709
a(g2240
g165
g2204
tp2710
a(g497
g2240
g2204
tp2711
a(g553
g331
g2204
tp2712
a(g2219
g17
g2204
tp2713
a(g2203
g29
g2204
tp2714
a(g88
g2222
g2204
tp2715
a(g2209
g152
g2204
tp2716
a(g53
g2222
g2204
tp2717
a(g17
g260
g2204
tp2718
a(g2219
g243
g2204
tp2719
a(g94
g2203
g2204
tp2720
a(g82
g471
g2204
tp2721
a(g282
g17
g2204
tp2722
a(g468
g548
g2204
tp2723
a(g53
g260
g2204
tp2724
a(g553
g79
g2204
tp2725
a(g188
g548
g2204
tp2726
a(g82
g2285
g2204
tp2727
a(g221
g2209
g2204
tp2728
a(g38
g2222
g2204
tp2729
a(g2209
g156
g2204
tp2730
a(g79
g471
g2204
tp2731
a(g548
g2211
g2204
tp2732
a(g692
g2219
g2204
tp2733
a(g288
g2285
g2204
tp2734
a(g161
g2219
g2204
tp2735
a(g111
g553
g2204
tp2736
a(g128
g509
g2204
tp2737
a(g85
g192
g2204
tp2738
a(g460
g2206
g2204
tp2739
a(g553
g145
g2204
tp2740
a(g822
g2232
g2204
tp2741
a(g192
g2222
g2204
tp2742
a(g156
g69
g2204
tp2743
a(g2232
g184
g2204
tp2744
a(g210
g266
g2204
tp2745
a(g69
g243
g2204
tp2746
a(g266
g591
g2204
tp2747
a(g2240
g169
g2204
tp2748
a(g177
g210
g2204
tp2749
a(g2219
g82
g2204
tp2750
a(g2211
g111
g2204
tp2751
a(g471
g320
g2204
tp2752
a(g192
g2214
g2204
tp2753
a(g210
g2206
g2204
tp2754
a(g192
g389
g2204
tp2755
a(g180
g2203
g2204
tp2756
a(g17
g5
g2204
tp2757
a(g158
g322
g2204
tp2758
a(g2214
g165
g2204
tp2759
a(g226
g2214
g2204
tp2760
a(g2232
g548
g2204
tp2761
a(g844
g2219
g2204
tp2762
a(g33
g2214
g2204
tp2763
a(g184
g58
g2204
tp2764
a(g2219
g652
g2204
tp2765
a(g161
g2203
g2204
tp2766
a(g2280
g320
g2204
tp2767
a(g192
g14
g2204
tp2768
a(g2222
g308
g2204
tp2769
a(g184
g104
g2204
tp2770
a(g776
g5
g2204
tp2771
a(g148
g2240
g2204
tp2772
a(g2285
g202
g2204
tp2773
a(g2222
g83
g2204
tp2774
a(g71
g2214
g2204
tp2775
a(g2285
g17
g2204
tp2776
a(g266
g2219
g2204
tp2777
a(g652
g92
g2204
tp2778
a(g2209
g108
g2204
tp2779
a(g111
g2209
g2204
tp2780
a(g692
g591
g2204
tp2781
a(g206
g2280
g2204
tp2782
a(g2203
g2209
g2204
tp2783
a(g232
g258
g2204
tp2784
a(g2206
g418
g2204
tp2785
a(g2203
g400
g2204
tp2786
a(g179
g2203
g2204
tp2787
a(g179
g53
g2204
tp2788
a(g2280
g300
g2204
tp2789
a(g2285
g877
g2204
tp2790
a(g184
g2203
g2204
tp2791
a(g2203
g2285
g2204
tp2792
a(g266
g366
g2204
tp2793
a(g2219
g76
g2204
tp2794
a(g342
g258
g2204
tp2795
a(g2280
g122
g2204
tp2796
a(g2280
g250
g2204
tp2797
a(g2280
g169
g2204
tp2798
a(g553
g270
g2204
tp2799
a(g322
g2285
g2204
tp2800
a(g509
g208
g2204
tp2801
a(g2285
g159
g2204
tp2802
a(g53
g32
g2204
tp2803
a(g195
g692
g2204
tp2804
a(g111
g844
g2204
tp2805
a(g342
g73
g2204
tp2806
a(g2206
g256
g2204
tp2807
a(g2203
g38
g2204
tp2808
a(g509
g117
g2204
tp2809
a(g509
g278
g2204
tp2810
a(g132
g2211
g2204
tp2811
a(g193
g308
g2204
tp2812
a(g2206
g154
g2204
tp2813
a(g300
g2203
g2204
tp2814
a(g250
g2222
g2204
tp2815
a(g29
g591
g2204
tp2816
a(g2209
g226
g2204
tp2817
a(g250
g509
g2204
tp2818
a(g2232
g877
g2204
tp2819
a(g2209
g2232
g2204
tp2820
a(g108
g2209
g2204
tp2821
a(g2240
g444
g2204
tp2822
a(g389
g156
g2204
tp2823
a(g17
g213
g2204
tp2824
a(g217
g2219
g2204
tp2825
a(g2211
g460
g2204
tp2826
a(g2219
g471
g2204
tp2827
a(g158
g553
g2204
tp2828
a(g189
g2214
g2204
tp2829
a(g154
g844
g2204
tp2830
a(g360
g2203
g2204
tp2831
a(g300
g108
g2204
tp2832
a(g509
g198
g2204
tp2833
a(g251
g509
g2204
tp2834
a(g73
g172
g2204
tp2835
a(g142
g404
g2204
tp2836
a(g395
g58
g2204
tp2837
a(g322
g331
g2204
tp2838
a(g117
g2280
g2204
tp2839
a(g2206
g165
g2204
tp2840
a(g69
g266
g2204
tp2841
a(g266
g26
g2204
tp2842
a(g189
g2280
g2204
tp2843
a(g2280
g242
g2204
tp2844
a(g2285
g400
g2204
tp2845
a(g2222
g117
g2204
tp2846
a(g2232
g23
g2204
tp2847
a(g2219
g300
g2204
tp2848
a(g38
g2285
g2204
tp2849
a(g2280
g2240
g2204
tp2850
a(g553
g92
g2204
tp2851
a(g548
g242
g2204
tp2852
a(g2209
g89
g2204
tp2853
a(g117
g844
g2204
tp2854
a(g844
g188
g2204
tp2855
a(g58
g2214
g2204
tp2856
a(g233
g258
g2204
tp2857
a(g2219
g250
g2204
tp2858
a(g15
g193
g2204
tp2859
a(g66
g2240
g2204
tp2860
a(g2211
g253
g2204
tp2861
a(g146
g509
g2204
tp2862
a(g2206
g278
g2204
tp2863
a(g77
g39
g2204
tp2864
a(g2203
g296
g2204
tp2865
a(g471
g38
g2204
tp2866
a(g844
g47
g2204
tp2867
a(g266
g195
g2204
tp2868
a(g2232
g109
g2204
tp2869
a(g548
g106
g2204
tp2870
a(g2209
g600
g2204
tp2871
a(g148
g2203
g2204
tp2872
a(g158
g210
g2204
tp2873
a(g86
g2211
g2204
tp2874
a(g196
g509
g2204
tp2875
a(g260
g553
g2204
tp2876
a(g692
g2209
g2204
tp2877
a(g2219
g158
g2204
tp2878
a(g652
g2285
g2204
tp2879
a(g2206
g270
g2204
tp2880
a(g53
g427
g2204
tp2881
a(g91
g2214
g2204
tp2882
a(g877
g2280
g2204
tp2883
a(g300
g2280
g2204
tp2884
a(g2206
g6
g2204
tp2885
a(g2203
g17
g2204
tp2886
a(g2219
g117
g2204
tp2887
a(g54
g2203
g2204
tp2888
a(g822
g158
g2204
tp2889
a(g172
g440
g2204
tp2890
a(g284
g77
g2204
tp2891
a(g11
g69
g2204
tp2892
a(g2214
g282
g2204
tp2893
a(g251
g2209
g2204
tp2894
a(g2206
g2
g2204
tp2895
a(g331
g172
g2204
tp2896
a(g2280
g442
g2204
tp2897
a(g2232
g223
g2204
tp2898
a(g250
g2214
g2204
tp2899
a(g591
g369
g2204
tp2900
a(g844
g172
g2204
tp2901
a(g192
g158
g2204
tp2902
a(g266
g17
g2204
tp2903
a(g776
g79
g2204
tp2904
a(g184
g154
g2204
tp2905
a(g334
g2211
g2204
tp2906
a(g2209
g161
g2204
tp2907
a(g2203
g35
g2204
tp2908
a(g468
g15
g2204
tp2909
a(g844
g278
g2204
tp2910
a(g550
g2240
g2204
tp2911
a(g692
g104
g2204
tp2912
a(g442
g2280
g2204
tp2913
a(g2206
g273
g2204
tp2914
a(g76
g108
g2204
tp2915
a(g2285
g180
g2204
tp2916
a(g5
g258
g2204
tp2917
a(g2280
g275
g2204
tp2918
a(g132
g468
g2204
tp2919
a(g11
g2285
g2204
tp2920
a(g5
g172
g2204
tp2921
a(g2214
g198
g2204
tp2922
a(g553
g308
g2204
tp2923
a(g2211
g172
g2204
tp2924
a(g2240
g418
g2204
tp2925
a(g652
g27
g2204
tp2926
a(g2206
g83
g2204
tp2927
a(g263
g2203
g2204
tp2928
a(g2232
g154
g2204
tp2929
a(g268
g2222
g2204
tp2930
a(g2232
g427
g2204
tp2931
a(g360
g652
g2204
tp2932
a(g2209
g125
g2204
tp2933
a(g404
g369
g2204
tp2934
a(g509
g223
g2204
tp2935
a(g2219
g8
g2204
tp2936
a(g2209
g53
g2204
tp2937
a(g69
g548
g2204
tp2938
a(g103
g444
g2204
tp2939
a(g468
g79
g2204
tp2940
a(g2240
g215
g2204
tp2941
a(g106
g17
g2204
tp2942
a(g2285
g61
g2204
tp2943
a(g258
g243
g2204
tp2944
a(g548
g188
g2204
tp2945
a(g2209
g2280
g2204
tp2946
a(g2203
g273
g2204
tp2947
a(g2206
g77
g2204
tp2948
a(g555
g2285
g2204
tp2949
a(g2285
g263
g2204
tp2950
a(g26
g2240
g2204
tp2951
a(g273
g2219
g2204
tp2952
a(g29
g158
g2204
tp2953
a(g66
g418
g2204
tp2954
a(g471
g12
g2204
tp2955
a(g58
g5
g2204
tp2956
a(g103
g258
g2204
tp2957
a(g17
g2206
g2204
tp2958
a(g2222
g73
g2204
tp2959
a(g158
g142
g2204
tp2960
a(g450
g192
g2204
tp2961
a(g320
g2280
g2204
tp2962
a(g548
g346
g2204
tp2963
a(g101
g2280
g2204
tp2964
a(g342
g158
g2204
tp2965
a(g266
g427
g2204
tp2966
a(g36
g2219
g2204
tp2967
a(g2214
g98
g2204
tp2968
a(g844
g198
g2204
tp2969
a(g104
g2203
g2204
tp2970
a(g471
g2219
g2204
tp2971
a(g342
g2209
g2204
tp2972
a(g2211
g59
g2204
tp2973
a(g39
g2211
g2204
tp2974
a(g369
g256
g2204
tp2975
a(g2280
g45
g2204
tp2976
a(g497
g2219
g2204
tp2977
a(g2209
g462
g2204
tp2978
a(g69
g125
g2204
tp2979
a(g2285
g2203
g2204
tp2980
a(g131
g2219
g2204
tp2981
a(g2206
g320
g2204
tp2982
a(g2203
g462
g2204
tp2983
a(g184
g366
g2204
tp2984
a(g2203
g460
g2204
tp2985
a(g2206
g395
g2204
tp2986
a(g56
g2240
g2204
tp2987
a(g192
g132
g2204
tp2988
a(g169
g2206
g2204
tp2989
a(g108
g2285
g2204
tp2990
a(g53
g47
g2204
tp2991
a(g125
g17
g2204
tp2992
a(g2206
g223
g2204
tp2993
a(g266
g92
g2204
tp2994
a(g159
g2214
g2204
tp2995
a(g73
g776
g2204
tp2996
a(g192
g188
g2204
tp2997
a(g114
g2222
g2204
tp2998
a(g2232
g210
g2204
tp2999
a(g844
g2222
g2204
tp3000
a(g258
g146
g2204
tp3001
a(g58
g263
g2204
tp3002
a(g2206
g17
g2204
tp3003
a(g256
g2222
g2204
tp3004
a(g30
g2214
g2204
tp3005
a(g69
g106
g2204
tp3006
a(g468
g73
g2204
tp3007
a(g418
g471
g2204
tp3008
a(g2203
g134
g2204
tp3009
a(g418
g192
g2204
tp3010
a(g256
g468
g2204
tp3011
a(g509
g2222
g2204
tp3012
a(g39
g2280
g2204
tp3013
a(g652
g230
g2204
tp3014
a(g822
g240
g2204
tp3015
a(g2203
g42
g2204
tp3016
a(g555
g2211
g2204
tp3017
a(g6
g258
g2204
tp3018
a(g215
g2214
g2204
tp3019
a(g66
g79
g2204
tp3020
a(g192
g692
g2204
tp3021
a(g104
g692
g2204
tp3022
a(g240
g2285
g2204
tp3023
a(g2222
g47
g2204
tp3024
a(g2219
g342
g2204
tp3025
a(g652
g223
g2204
tp3026
a(g2240
g11
g2204
tp3027
a(g179
g17
g2204
tp3028
a(g196
g258
g2204
tp3029
a(g11
g76
g2204
tp3030
a(g2280
g74
g2204
tp3031
a(g8
g69
g2204
tp3032
a(g152
g2232
g2204
tp3033
a(g591
g58
g2204
tp3034
a(g53
g35
g2204
tp3035
a(g2211
g45
g2204
tp3036
a(g192
g135
g2204
tp3037
a(g509
g230
g2204
tp3038
a(g66
g103
g2204
tp3039
a(g260
g17
g2204
tp3040
a(g188
g471
g2204
tp3041
a(g2219
g242
g2204
tp3042
a(g427
g2222
g2204
tp3043
a(g266
g223
g2204
tp3044
a(g553
g32
g2204
tp3045
a(g2232
g275
g2204
tp3046
a(g137
g2232
g2204
tp3047
a(g172
g2203
g2204
tp3048
a(g2240
g71
g2204
tp3049
a(g240
g822
g2204
tp3050
a(g86
g2219
g2204
tp3051
a(g430
g468
g2204
tp3052
a(g188
g258
g2204
tp3053
a(g165
g2209
g2204
tp3054
a(g2280
g6
g2204
tp3055
a(g389
g2203
g2204
tp3056
a(g258
g158
g2204
tp3057
a(g404
g58
g2204
tp3058
a(g2211
g161
g2204
tp3059
a(g2240
g61
g2204
tp3060
a(g266
g230
g2204
tp3061
a(g509
g2240
g2204
tp3062
a(g76
g5
g2204
tp3063
a(g21
g553
g2204
tp3064
a(g2209
g360
g2204
tp3065
a(g237
g266
g2204
tp3066
a(g38
g471
g2204
tp3067
a(g2214
g89
g2204
tp3068
a(g2232
g2214
g2204
tp3069
a(g2222
g223
g2204
tp3070
a(g193
g2211
g2204
tp3071
a(g844
g366
g2204
tp3072
a(g509
g189
g2204
tp3073
a(g172
g131
g2204
tp3074
a(g69
g822
g2204
tp3075
a(g219
g2211
g2204
tp3076
a(g444
g2232
g2204
tp3077
a(g85
g2280
g2204
tp3078
a(g342
g591
g2204
tp3079
a(g2222
g89
g2204
tp3080
a(g260
g53
g2204
tp3081
a(g202
g2285
g2204
tp3082
a(g128
g53
g2204
tp3083
a(g2219
g94
g2204
tp3084
a(g5
g822
g2204
tp3085
a(g418
g2214
g2204
tp3086
a(g258
g196
g2204
tp3087
a(g135
g172
g2204
tp3088
a(g143
g2285
g2204
tp3089
a(g44
g2222
g2204
tp3090
a(g73
g76
g2204
tp3091
a(g497
g2285
g2204
tp3092
a(g692
g156
g2204
tp3093
a(g2232
g135
g2204
tp3094
a(g591
g172
g2204
tp3095
a(g844
g27
g2204
tp3096
a(g219
g2209
g2204
tp3097
a(g2
g2209
g2204
tp3098
a(g61
g548
g2204
tp3099
a(g240
g2209
g2204
tp3100
a(g2211
g32
g2204
tp3101
a(g184
g230
g2204
tp3102
a(g300
g263
g2204
tp3103
a(g342
g79
g2204
tp3104
a(g2232
g260
g2204
tp3105
a(g2240
g192
g2204
tp3106
a(g156
g284
g2204
tp3107
a(g2280
g63
g2204
tp3108
a(g2285
g223
g2204
tp3109
a(g2214
g497
g2204
tp3110
a(g2285
g2280
g2204
tp3111
a(g692
g91
g2204
tp3112
a(g2222
g331
g2204
tp3113
a(g14
g2211
g2204
tp3114
a(g468
g591
g2204
tp3115
a(g2206
g91
g2204
tp3116
a(g137
g69
g2204
tp3117
a(g278
g2203
g2204
tp3118
a(g2211
g440
g2204
tp3119
a(g2206
g169
g2204
tp3120
a(g548
g91
g2204
tp3121
a(g251
g2222
g2204
tp3122
a(g61
g184
g2204
tp3123
a(g172
g148
g2204
tp3124
a(g2214
g2280
g2204
tp3125
a(g2280
g195
g2204
tp3126
a(g692
g270
g2204
tp3127
a(g135
g2285
g2204
tp3128
a(g2203
g122
g2204
tp3129
a(g223
g509
g2204
tp3130
a(g117
g2219
g2204
tp3131
a(g2203
g219
g2204
tp3132
a(g230
g2232
g2204
tp3133
a(g2203
g59
g2204
tp3134
a(g184
g2240
g2204
tp3135
a(g2203
g106
g2204
tp3136
a(g137
g2209
g2204
tp3137
a(g98
g2206
g2204
tp3138
a(g156
g219
g2204
tp3139
a(g2222
g193
g2204
tp3140
a(g193
g2232
g2204
tp3141
a(g2209
g404
g2204
tp3142
a(g2211
g91
g2204
tp3143
a(g142
g331
g2204
tp3144
a(g300
g137
g2204
tp3145
a(g2280
g129
g2204
tp3146
a(g2206
g96
g2204
tp3147
a(g2280
g14
g2204
tp3148
a(g553
g23
g2204
tp3149
a(g256
g193
g2204
tp3150
a(g2209
g104
g2204
tp3151
a(g322
g591
g2204
tp3152
a(g268
g2232
g2204
tp3153
a(g210
g12
g2204
tp3154
a(g2280
g172
g2204
tp3155
a(g156
g652
g2204
tp3156
a(g69
g184
g2204
tp3157
a(g2240
g42
g2204
tp3158
a(g2209
g219
g2204
tp3159
a(g2203
g2214
g2204
tp3160
a(g550
g2214
g2204
tp3161
a(g300
g158
g2204
tp3162
a(g76
g2203
g2204
tp3163
a(g2219
g169
g2204
tp3164
a(g2280
g349
g2204
tp3165
a(g2280
g71
g2204
tp3166
a(g135
g300
g2204
tp3167
a(g2222
g468
g2204
tp3168
a(g79
g2206
g2204
tp3169
a(g232
g2219
g2204
tp3170
a(g66
g82
g2204
tp3171
a(g310
g2211
g2204
tp3172
a(g2285
g221
g2204
tp3173
a(g192
g79
g2204
tp3174
a(g215
g2240
g2204
tp3175
a(g66
g47
g2204
tp3176
a(g408
g5
g2204
tp3177
a(g256
g2280
g2204
tp3178
a(g50
g2206
g2204
tp3179
a(g300
g266
g2204
tp3180
a(g2285
g20
g2204
tp3181
a(g2240
g100
g2204
tp3182
a(g2240
g200
g2204
tp3183
a(g242
g2209
g2204
tp3184
a(g21
g2214
g2204
tp3185
a(g125
g2219
g2204
tp3186
a(g2206
g104
g2204
tp3187
a(g548
g308
g2204
tp3188
a(g184
g282
g2204
tp3189
a(g2285
g776
g2204
tp3190
a(g48
g692
g2204
tp3191
a(g12
g468
g2204
tp3192
a(g131
g2280
g2204
tp3193
a(g468
g844
g2204
tp3194
a(g256
g2214
g2204
tp3195
a(g14
g2203
g2204
tp3196
a(g2203
g169
g2204
tp3197
a(g14
g300
g2204
tp3198
a(g219
g2203
g2204
tp3199
a(g69
g14
g2204
tp3200
a(g196
g2211
g2204
tp3201
a(g58
g38
g2204
tp3202
a(g692
g128
g2204
tp3203
a(g844
g104
g2204
tp3204
a(g270
g2280
g2204
tp3205
a(g2209
g79
g2204
tp3206
a(g1
g2222
g2204
tp3207
a(g2219
g100
g2204
tp3208
a(g2214
g41
g2204
tp3209
a(g80
g2222
g2204
tp3210
a(g468
g8
g2204
tp3211
a(g2206
g268
g2204
tp3212
a(g2211
g158
g2204
tp3213
a(g184
g111
g2204
tp3214
a.