(dp0
S'train'
p1
(lp2
(iexample
Example
p3
(dp4
S'parse'
p5
NsS'input'
p6
S'29 Jun 1969 non-US'
p7
sS'semantics'
p8
NsS'denotation'
p9
cdatetime
date
p10
(S'\x07\xb1\x06\x1d'
p11
tp12
Rp13
sba(iexample
Example
p14
(dp15
g5
Nsg6
S'25 April 2051 non-US'
p16
sg8
Nsg9
g10
(S'\x08\x03\x04\x19'
p17
tp18
Rp19
sba(iexample
Example
p20
(dp21
g5
Nsg6
S'July the 11th 1949 US'
p22
sg8
Nsg9
g10
(S'\x07\x9d\x07\x0b'
p23
tp24
Rp25
sba(iexample
Example
p26
(dp27
g5
Nsg6
S'24 6 68 non-US'
p28
sg8
Nsg9
g10
(S'\x07\xb0\x06\x18'
p29
tp30
Rp31
sba(iexample
Example
p32
(dp33
g5
Nsg6
S'Apr the 16th 2056 US'
p34
sg8
Nsg9
g10
(S'\x08\x08\x04\x10'
p35
tp36
Rp37
sba(iexample
Example
p38
(dp39
g5
Nsg6
S'2010 05 04 non-US'
p40
sg8
Nsg9
g10
(S'\x07\xda\x05\x04'
p41
tp42
Rp43
sba(iexample
Example
p44
(dp45
g5
Nsg6
S'Mar 2 2078 US'
p46
sg8
Nsg9
g10
(S'\x08\x1e\x03\x02'
p47
tp48
Rp49
sba(iexample
Example
p50
(dp51
g5
Nsg6
S'01 02 89 non-US'
p52
sg8
Nsg9
g10
(S'\x07\xc5\x02\x01'
p53
tp54
Rp55
sba(iexample
Example
p56
(dp57
g5
Nsg6
S'29th Jun 1900 non-US'
p58
sg8
Nsg9
g10
(S'\x07l\x06\x1d'
p59
tp60
Rp61
sba(iexample
Example
p62
(dp63
g5
Nsg6
S'28th Mar 1934 non-US'
p64
sg8
Nsg9
g10
(S'\x07\x8e\x03\x1c'
p65
tp66
Rp67
sba(iexample
Example
p68
(dp69
g5
Nsg6
S'November the 14th 1997 US'
p70
sg8
Nsg9
g10
(S'\x07\xcd\x0b\x0e'
p71
tp72
Rp73
sba(iexample
Example
p74
(dp75
g5
Nsg6
S'1959 01 04 non-US'
p76
sg8
Nsg9
g10
(S'\x07\xa7\x01\x04'
p77
tp78
Rp79
sba(iexample
Example
p80
(dp81
g5
Nsg6
S'Nov the 15th 2054 US'
p82
sg8
Nsg9
g10
(S'\x08\x06\x0b\x0f'
p83
tp84
Rp85
sba(iexample
Example
p86
(dp87
g5
Nsg6
S'Nov 10 1941 US'
p88
sg8
Nsg9
g10
(S'\x07\x95\x0b\n'
p89
tp90
Rp91
sba(iexample
Example
p92
(dp93
g5
Nsg6
S'July the 20th 1974 US'
p94
sg8
Nsg9
g10
(S'\x07\xb6\x07\x14'
p95
tp96
Rp97
sba(iexample
Example
p98
(dp99
g5
Nsg6
S'3rd January 1964 non-US'
p100
sg8
Nsg9
g10
(S'\x07\xac\x01\x03'
p101
tp102
Rp103
sba(iexample
Example
p104
(dp105
g5
Nsg6
S'December 15 2079 US'
p106
sg8
Nsg9
g10
(S'\x08\x1f\x0c\x0f'
p107
tp108
Rp109
sba(iexample
Example
p110
(dp111
g5
Nsg6
S'1955 08 03 non-US'
p112
sg8
Nsg9
g10
(S'\x07\xa3\x08\x03'
p113
tp114
Rp115
sba(iexample
Example
p116
(dp117
g5
Nsg6
S'Apr 27 2087 US'
p118
sg8
Nsg9
g10
(S"\x08'\x04\x1b"
p119
tp120
Rp121
sba(iexample
Example
p122
(dp123
g5
Nsg6
S'2056 01 07 non-US'
p124
sg8
Nsg9
g10
(S'\x08\x08\x01\x07'
p125
tp126
Rp127
sba(iexample
Example
p128
(dp129
g5
Nsg6
S'2061 08 08 non-US'
p130
sg8
Nsg9
g10
(S'\x08\r\x08\x08'
p131
tp132
Rp133
sba(iexample
Example
p134
(dp135
g5
Nsg6
S'Sep 23 1977 US'
p136
sg8
Nsg9
g10
(S'\x07\xb9\t\x17'
p137
tp138
Rp139
sba(iexample
Example
p140
(dp141
g5
Nsg6
S'Jun the 14th 1917 US'
p142
sg8
Nsg9
g10
(S'\x07}\x06\x0e'
p143
tp144
Rp145
sba(iexample
Example
p146
(dp147
g5
Nsg6
S'09 03 1974 non-US'
p148
sg8
Nsg9
g10
(S'\x07\xb6\x03\t'
p149
tp150
Rp151
sba(iexample
Example
p152
(dp153
g5
Nsg6
S'1945 01 09 non-US'
p154
sg8
Nsg9
g10
(S'\x07\x99\x01\t'
p155
tp156
Rp157
sba(iexample
Example
p158
(dp159
g5
Nsg6
S'18 Oct 1986 non-US'
p160
sg8
Nsg9
g10
(S'\x07\xc2\n\x12'
p161
tp162
Rp163
sba(iexample
Example
p164
(dp165
g5
Nsg6
S'10 9 41 US'
p166
sg8
Nsg9
g10
(S'\x07\x95\n\t'
p167
tp168
Rp169
sba(iexample
Example
p170
(dp171
g5
Nsg6
S'September the 5th 2044 US'
p172
sg8
Nsg9
g10
(S'\x07\xfc\t\x05'
p173
tp174
Rp175
sba(iexample
Example
p176
(dp177
g5
Nsg6
S'October 19 1925 US'
p178
sg8
Nsg9
g10
(S'\x07\x85\n\x13'
p179
tp180
Rp181
sba(iexample
Example
p182
(dp183
g5
Nsg6
S'2nd May 1988 non-US'
p184
sg8
Nsg9
g10
(S'\x07\xc4\x05\x02'
p185
tp186
Rp187
sba(iexample
Example
p188
(dp189
g5
Nsg6
S'May 4 1962 US'
p190
sg8
Nsg9
g10
(S'\x07\xaa\x05\x04'
p191
tp192
Rp193
sba(iexample
Example
p194
(dp195
g5
Nsg6
S'Nov 25 1917 US'
p196
sg8
Nsg9
g10
(S'\x07}\x0b\x19'
p197
tp198
Rp199
sba(iexample
Example
p200
(dp201
g5
Nsg6
S'07 07 2059 non-US'
p202
sg8
Nsg9
g10
(S'\x08\x0b\x07\x07'
p203
tp204
Rp205
sba(iexample
Example
p206
(dp207
g5
Nsg6
S'1981 09 07 non-US'
p208
sg8
Nsg9
g10
(S'\x07\xbd\t\x07'
p209
tp210
Rp211
sba(iexample
Example
p212
(dp213
g5
Nsg6
S'24 9 06 non-US'
p214
sg8
Nsg9
g10
(S'\x07r\t\x18'
p215
tp216
Rp217
sba(iexample
Example
p218
(dp219
g5
Nsg6
S'21 8 1918 non-US'
p220
sg8
Nsg9
g10
(S'\x07~\x08\x15'
p221
tp222
Rp223
sba(iexample
Example
p224
(dp225
g5
Nsg6
S'01 09 1904 non-US'
p226
sg8
Nsg9
g10
(S'\x07p\t\x01'
p227
tp228
Rp229
sba(iexample
Example
p230
(dp231
g5
Nsg6
S'22 8 1965 non-US'
p232
sg8
Nsg9
g10
(S'\x07\xad\x08\x16'
p233
tp234
Rp235
sba(iexample
Example
p236
(dp237
g5
Nsg6
S'5 5 2048 non-US'
p238
sg8
Nsg9
g10
(S'\x08\x00\x05\x05'
p239
tp240
Rp241
sba(iexample
Example
p242
(dp243
g5
Nsg6
S'December 4 2077 US'
p244
sg8
Nsg9
g10
(S'\x08\x1d\x0c\x04'
p245
tp246
Rp247
sba(iexample
Example
p248
(dp249
g5
Nsg6
S'15 December 2054 non-US'
p250
sg8
Nsg9
g10
(S'\x08\x06\x0c\x0f'
p251
tp252
Rp253
sba(iexample
Example
p254
(dp255
g5
Nsg6
S'February 28 2062 US'
p256
sg8
Nsg9
g10
(S'\x08\x0e\x02\x1c'
p257
tp258
Rp259
sba(iexample
Example
p260
(dp261
g5
Nsg6
S'06 01 43 US'
p262
sg8
Nsg9
g10
(S'\x07\x97\x06\x01'
p263
tp264
Rp265
sba(iexample
Example
p266
(dp267
g5
Nsg6
S'November the 18th 1989 US'
p268
sg8
Nsg9
g10
(S'\x07\xc5\x0b\x12'
p269
tp270
Rp271
sba(iexample
Example
p272
(dp273
g5
Nsg6
S'01 01 1953 non-US'
p274
sg8
Nsg9
g10
(S'\x07\xa1\x01\x01'
p275
tp276
Rp277
sba(iexample
Example
p278
(dp279
g5
Nsg6
S'13 10 2009 non-US'
p280
sg8
Nsg9
g10
(S'\x07\xd9\n\r'
p281
tp282
Rp283
sba(iexample
Example
p284
(dp285
g5
Nsg6
S'September 21 2018 US'
p286
sg8
Nsg9
g10
(S'\x07\xe2\t\x15'
p287
tp288
Rp289
sba(iexample
Example
p290
(dp291
g5
Nsg6
S'08 04 45 non-US'
p292
sg8
Nsg9
g10
(S'\x07\x99\x04\x08'
p293
tp294
Rp295
sba(iexample
Example
p296
(dp297
g5
Nsg6
S'Sep the 28th 2024 US'
p298
sg8
Nsg9
g10
(S'\x07\xe8\t\x1c'
p299
tp300
Rp301
sba(iexample
Example
p302
(dp303
g5
Nsg6
S'January the 17th 1962 US'
p304
sg8
Nsg9
g10
(S'\x07\xaa\x01\x11'
p305
tp306
Rp307
sba(iexample
Example
p308
(dp309
g5
Nsg6
S'July the 22nd 1936 US'
p310
sg8
Nsg9
g10
(S'\x07\x90\x07\x16'
p311
tp312
Rp313
sba(iexample
Example
p314
(dp315
g5
Nsg6
S'29 Nov 2085 non-US'
p316
sg8
Nsg9
g10
(S'\x08%\x0b\x1d'
p317
tp318
Rp319
sba(iexample
Example
p320
(dp321
g5
Nsg6
S'1914 05 01 non-US'
p322
sg8
Nsg9
g10
(S'\x07z\x05\x01'
p323
tp324
Rp325
sba(iexample
Example
p326
(dp327
g5
Nsg6
S'12th August 1914 non-US'
p328
sg8
Nsg9
g10
(S'\x07z\x08\x0c'
p329
tp330
Rp331
sba(iexample
Example
p332
(dp333
g5
Nsg6
S'December the 13th 2097 US'
p334
sg8
Nsg9
g10
(S'\x081\x0c\r'
p335
tp336
Rp337
sba(iexample
Example
p338
(dp339
g5
Nsg6
S'27th May 1961 non-US'
p340
sg8
Nsg9
g10
(S'\x07\xa9\x05\x1b'
p341
tp342
Rp343
sba(iexample
Example
p344
(dp345
g5
Nsg6
S'November 10 2052 US'
p346
sg8
Nsg9
g10
(S'\x08\x04\x0b\n'
p347
tp348
Rp349
sba(iexample
Example
p350
(dp351
g5
Nsg6
S'24 Jan 1963 non-US'
p352
sg8
Nsg9
g10
(S'\x07\xab\x01\x18'
p353
tp354
Rp355
sba(iexample
Example
p356
(dp357
g5
Nsg6
S'Oct 21 1990 US'
p358
sg8
Nsg9
g10
(S'\x07\xc6\n\x15'
p359
tp360
Rp361
sba(iexample
Example
p362
(dp363
g5
Nsg6
S'Dec 8 2087 US'
p364
sg8
Nsg9
g10
(S"\x08'\x0c\x08"
p365
tp366
Rp367
sba(iexample
Example
p368
(dp369
g5
Nsg6
S'14 November 2082 non-US'
p370
sg8
Nsg9
g10
(S'\x08"\x0b\x0e'
p371
tp372
Rp373
sba(iexample
Example
p374
(dp375
g5
Nsg6
S'March the 30th 1953 US'
p376
sg8
Nsg9
g10
(S'\x07\xa1\x03\x1e'
p377
tp378
Rp379
sba(iexample
Example
p380
(dp381
g5
Nsg6
S'Oct 23 1963 US'
p382
sg8
Nsg9
g10
(S'\x07\xab\n\x17'
p383
tp384
Rp385
sba(iexample
Example
p386
(dp387
g5
Nsg6
S'05 04 1956 US'
p388
sg8
Nsg9
g10
(S'\x07\xa4\x05\x04'
p389
tp390
Rp391
sba(iexample
Example
p392
(dp393
g5
Nsg6
S'07 03 1922 US'
p394
sg8
Nsg9
g10
(S'\x07\x82\x07\x03'
p395
tp396
Rp397
sba(iexample
Example
p398
(dp399
g5
Nsg6
S'19 Aug 2057 non-US'
p400
sg8
Nsg9
g10
(S'\x08\t\x08\x13'
p401
tp402
Rp403
sba(iexample
Example
p404
(dp405
g5
Nsg6
S'April 11 2077 US'
p406
sg8
Nsg9
g10
(S'\x08\x1d\x04\x0b'
p407
tp408
Rp409
sba(iexample
Example
p410
(dp411
g5
Nsg6
S'1953 06 06 non-US'
p412
sg8
Nsg9
g10
(S'\x07\xa1\x06\x06'
p413
tp414
Rp415
sba(iexample
Example
p416
(dp417
g5
Nsg6
S'3 July 2044 non-US'
p418
sg8
Nsg9
g10
(S'\x07\xfc\x07\x03'
p419
tp420
Rp421
sba(iexample
Example
p422
(dp423
g5
Nsg6
S'9th Feb 1954 non-US'
p424
sg8
Nsg9
g10
(S'\x07\xa2\x02\t'
p425
tp426
Rp427
sba(iexample
Example
p428
(dp429
g5
Nsg6
S'2021 05 04 non-US'
p430
sg8
Nsg9
g10
(S'\x07\xe5\x05\x04'
p431
tp432
Rp433
sba(iexample
Example
p434
(dp435
g5
Nsg6
S'29 May 2043 non-US'
p436
sg8
Nsg9
g10
(S'\x07\xfb\x05\x1d'
p437
tp438
Rp439
sba(iexample
Example
p440
(dp441
g5
Nsg6
S'May 8 1936 US'
p442
sg8
Nsg9
g10
(S'\x07\x90\x05\x08'
p443
tp444
Rp445
sba(iexample
Example
p446
(dp447
g5
Nsg6
S'May the 5th 1942 US'
p448
sg8
Nsg9
g10
(S'\x07\x96\x05\x05'
p449
tp450
Rp451
sba(iexample
Example
p452
(dp453
g5
Nsg6
S'22nd Feb 1951 non-US'
p454
sg8
Nsg9
g10
(S'\x07\x9f\x02\x16'
p455
tp456
Rp457
sba(iexample
Example
p458
(dp459
g5
Nsg6
S'May the 12th 1953 US'
p460
sg8
Nsg9
g10
(S'\x07\xa1\x05\x0c'
p461
tp462
Rp463
sba(iexample
Example
p464
(dp465
g5
Nsg6
S'December the 12th 1922 US'
p466
sg8
Nsg9
g10
(S'\x07\x82\x0c\x0c'
p467
tp468
Rp469
sba(iexample
Example
p470
(dp471
g5
Nsg6
S'2020 03 01 non-US'
p472
sg8
Nsg9
g10
(S'\x07\xe4\x03\x01'
p473
tp474
Rp475
sba(iexample
Example
p476
(dp477
g5
Nsg6
S'2077 08 06 non-US'
p478
sg8
Nsg9
g10
(S'\x08\x1d\x08\x06'
p479
tp480
Rp481
sba(iexample
Example
p482
(dp483
g5
Nsg6
S'01 01 72 US'
p484
sg8
Nsg9
g10
(S'\x07\xb4\x01\x01'
p485
tp486
Rp487
sba(iexample
Example
p488
(dp489
g5
Nsg6
S'26 12 1941 non-US'
p490
sg8
Nsg9
g10
(S'\x07\x95\x0c\x1a'
p491
tp492
Rp493
sba(iexample
Example
p494
(dp495
g5
Nsg6
S'07 07 1990 non-US'
p496
sg8
Nsg9
g10
(S'\x07\xc6\x07\x07'
p497
tp498
Rp499
sba(iexample
Example
p500
(dp501
g5
Nsg6
S'Sep 27 2028 US'
p502
sg8
Nsg9
g10
(S'\x07\xec\t\x1b'
p503
tp504
Rp505
sba(iexample
Example
p506
(dp507
g5
Nsg6
S'10 7 1991 US'
p508
sg8
Nsg9
g10
(S'\x07\xc7\n\x07'
p509
tp510
Rp511
sba(iexample
Example
p512
(dp513
g5
Nsg6
S'1974 04 10 US'
p514
sg8
Nsg9
g10
(S'\x07\xb6\x04\n'
p515
tp516
Rp517
sba(iexample
Example
p518
(dp519
g5
Nsg6
S'11 19 2091 US'
p520
sg8
Nsg9
g10
(S'\x08+\x0b\x13'
p521
tp522
Rp523
sba(iexample
Example
p524
(dp525
g5
Nsg6
S'2087 05 08 non-US'
p526
sg8
Nsg9
g10
(S"\x08'\x05\x08"
p527
tp528
Rp529
sba(iexample
Example
p530
(dp531
g5
Nsg6
S'2013 06 10 non-US'
p532
sg8
Nsg9
g10
(S'\x07\xdd\x06\n'
p533
tp534
Rp535
sba(iexample
Example
p536
(dp537
g5
Nsg6
S'2066 01 09 non-US'
p538
sg8
Nsg9
g10
(S'\x08\x12\x01\t'
p539
tp540
Rp541
sba(iexample
Example
p542
(dp543
g5
Nsg6
S'December 17 1981 US'
p544
sg8
Nsg9
g10
(S'\x07\xbd\x0c\x11'
p545
tp546
Rp547
sba(iexample
Example
p548
(dp549
g5
Nsg6
S'16th Jun 1995 non-US'
p550
sg8
Nsg9
g10
(S'\x07\xcb\x06\x10'
p551
tp552
Rp553
sba(iexample
Example
p554
(dp555
g5
Nsg6
S'1969 01 03 non-US'
p556
sg8
Nsg9
g10
(S'\x07\xb1\x01\x03'
p557
tp558
Rp559
sba(iexample
Example
p560
(dp561
g5
Nsg6
S'12th June 2036 non-US'
p562
sg8
Nsg9
g10
(S'\x07\xf4\x06\x0c'
p563
tp564
Rp565
sba(iexample
Example
p566
(dp567
g5
Nsg6
S'31st Jul 1998 non-US'
p568
sg8
Nsg9
g10
(S'\x07\xce\x07\x1f'
p569
tp570
Rp571
sba(iexample
Example
p572
(dp573
g5
Nsg6
S'06 04 98 US'
p574
sg8
Nsg9
g10
(S'\x07\xce\x06\x04'
p575
tp576
Rp577
sba(iexample
Example
p578
(dp579
g5
Nsg6
S'Jul 27 1984 US'
p580
sg8
Nsg9
g10
(S'\x07\xc0\x07\x1b'
p581
tp582
Rp583
sba(iexample
Example
p584
(dp585
g5
Nsg6
S'Oct the 6th 2022 US'
p586
sg8
Nsg9
g10
(S'\x07\xe6\n\x06'
p587
tp588
Rp589
sba(iexample
Example
p590
(dp591
g5
Nsg6
S'July the 5th 2077 US'
p592
sg8
Nsg9
g10
(S'\x08\x1d\x07\x05'
p593
tp594
Rp595
sba(iexample
Example
p596
(dp597
g5
Nsg6
S'7 2 1966 non-US'
p598
sg8
Nsg9
g10
(S'\x07\xae\x02\x07'
p599
tp600
Rp601
sba(iexample
Example
p602
(dp603
g5
Nsg6
S'16 Sep 1917 non-US'
p604
sg8
Nsg9
g10
(S'\x07}\t\x10'
p605
tp606
Rp607
sba(iexample
Example
p608
(dp609
g5
Nsg6
S'03 02 11 non-US'
p610
sg8
Nsg9
g10
(S'\x07w\x02\x03'
p611
tp612
Rp613
sba(iexample
Example
p614
(dp615
g5
Nsg6
S'1946 04 01 US'
p616
sg8
Nsg9
g10
(S'\x07\x9a\x04\x01'
p617
tp618
Rp619
sba(iexample
Example
p620
(dp621
g5
Nsg6
S'Aug the 29th 2087 US'
p622
sg8
Nsg9
g10
(S"\x08'\x08\x1d"
p623
tp624
Rp625
sba(iexample
Example
p626
(dp627
g5
Nsg6
S'Apr the 16th 1938 US'
p628
sg8
Nsg9
g10
(S'\x07\x92\x04\x10'
p629
tp630
Rp631
sba(iexample
Example
p632
(dp633
g5
Nsg6
S'September the 18th 2027 US'
p634
sg8
Nsg9
g10
(S'\x07\xeb\t\x12'
p635
tp636
Rp637
sba(iexample
Example
p638
(dp639
g5
Nsg6
S'3rd Aug 1904 non-US'
p640
sg8
Nsg9
g10
(S'\x07p\x08\x03'
p641
tp642
Rp643
sba(iexample
Example
p644
(dp645
g5
Nsg6
S'15 6 2066 non-US'
p646
sg8
Nsg9
g10
(S'\x08\x12\x06\x0f'
p647
tp648
Rp649
sba(iexample
Example
p650
(dp651
g5
Nsg6
S'11 1 1910 US'
p652
sg8
Nsg9
g10
(S'\x07v\x0b\x01'
p653
tp654
Rp655
sba(iexample
Example
p656
(dp657
g5
Nsg6
S'04 08 36 US'
p658
sg8
Nsg9
g10
(S'\x07\x90\x04\x08'
p659
tp660
Rp661
sba(iexample
Example
p662
(dp663
g5
Nsg6
S'07 06 93 non-US'
p664
sg8
Nsg9
g10
(S'\x07\xc9\x06\x07'
p665
tp666
Rp667
sba(iexample
Example
p668
(dp669
g5
Nsg6
S'5 Feb 1936 non-US'
p670
sg8
Nsg9
g10
(S'\x07\x90\x02\x05'
p671
tp672
Rp673
sba(iexample
Example
p674
(dp675
g5
Nsg6
S'6 4 1954 US'
p676
sg8
Nsg9
g10
(S'\x07\xa2\x06\x04'
p677
tp678
Rp679
sba(iexample
Example
p680
(dp681
g5
Nsg6
S'2080 02 06 non-US'
p682
sg8
Nsg9
g10
(S'\x08 \x02\x06'
p683
tp684
Rp685
sba(iexample
Example
p686
(dp687
g5
Nsg6
S'1964 09 05 non-US'
p688
sg8
Nsg9
g10
(S'\x07\xac\t\x05'
p689
tp690
Rp691
sba(iexample
Example
p692
(dp693
g5
Nsg6
S'5 3 2024 non-US'
p694
sg8
Nsg9
g10
(S'\x07\xe8\x03\x05'
p695
tp696
Rp697
sba(iexample
Example
p698
(dp699
g5
Nsg6
S'14 August 2045 non-US'
p700
sg8
Nsg9
g10
(S'\x07\xfd\x08\x0e'
p701
tp702
Rp703
sba(iexample
Example
p704
(dp705
g5
Nsg6
S'8 4 46 US'
p706
sg8
Nsg9
g10
(S'\x07\x9a\x08\x04'
p707
tp708
Rp709
sba(iexample
Example
p710
(dp711
g5
Nsg6
S'2033 06 01 non-US'
p712
sg8
Nsg9
g10
(S'\x07\xf1\x06\x01'
p713
tp714
Rp715
sba(iexample
Example
p716
(dp717
g5
Nsg6
S'1 11 09 US'
p718
sg8
Nsg9
g10
(S'\x07u\x01\x0b'
p719
tp720
Rp721
sba(iexample
Example
p722
(dp723
g5
Nsg6
S'1 26 1929 US'
p724
sg8
Nsg9
g10
(S'\x07\x89\x01\x1a'
p725
tp726
Rp727
sba(iexample
Example
p728
(dp729
g5
Nsg6
S'24th February 2043 non-US'
p730
sg8
Nsg9
g10
(S'\x07\xfb\x02\x18'
p731
tp732
Rp733
sba(iexample
Example
p734
(dp735
g5
Nsg6
S'Feb 10 1947 US'
p736
sg8
Nsg9
g10
(S'\x07\x9b\x02\n'
p737
tp738
Rp739
sba(iexample
Example
p740
(dp741
g5
Nsg6
S'2013 02 04 non-US'
p742
sg8
Nsg9
g10
(S'\x07\xdd\x02\x04'
p743
tp744
Rp745
sba(iexample
Example
p746
(dp747
g5
Nsg6
S'03 06 1919 non-US'
p748
sg8
Nsg9
g10
(S'\x07\x7f\x06\x03'
p749
tp750
Rp751
sba(iexample
Example
p752
(dp753
g5
Nsg6
S'Oct 15 2083 US'
p754
sg8
Nsg9
g10
(S'\x08#\n\x0f'
p755
tp756
Rp757
sba(iexample
Example
p758
(dp759
g5
Nsg6
S'12th Dec 2091 non-US'
p760
sg8
Nsg9
g10
(S'\x08+\x0c\x0c'
p761
tp762
Rp763
sba(iexample
Example
p764
(dp765
g5
Nsg6
S'28 7 13 non-US'
p766
sg8
Nsg9
g10
(S'\x07y\x07\x1c'
p767
tp768
Rp769
sba(iexample
Example
p770
(dp771
g5
Nsg6
S'2 19 1927 US'
p772
sg8
Nsg9
g10
(S'\x07\x87\x02\x13'
p773
tp774
Rp775
sba(iexample
Example
p776
(dp777
g5
Nsg6
S'17 7 2083 non-US'
p778
sg8
Nsg9
g10
(S'\x08#\x07\x11'
p779
tp780
Rp781
sba(iexample
Example
p782
(dp783
g5
Nsg6
S'2 Apr 2035 non-US'
p784
sg8
Nsg9
g10
(S'\x07\xf3\x04\x02'
p785
tp786
Rp787
sba(iexample
Example
p788
(dp789
g5
Nsg6
S'January 20 1903 US'
p790
sg8
Nsg9
g10
(S'\x07o\x01\x14'
p791
tp792
Rp793
sba(iexample
Example
p794
(dp795
g5
Nsg6
S'Oct the 3rd 1901 US'
p796
sg8
Nsg9
g10
(S'\x07m\n\x03'
p797
tp798
Rp799
sba(iexample
Example
p800
(dp801
g5
Nsg6
S'Jun the 27th 2060 US'
p802
sg8
Nsg9
g10
(S'\x08\x0c\x06\x1b'
p803
tp804
Rp805
sba(iexample
Example
p806
(dp807
g5
Nsg6
S'28 12 20 non-US'
p808
sg8
Nsg9
g10
(S'\x07\x80\x0c\x1c'
p809
tp810
Rp811
sba(iexample
Example
p812
(dp813
g5
Nsg6
S'19th Jun 2004 non-US'
p814
sg8
Nsg9
g10
(S'\x07\xd4\x06\x13'
p815
tp816
Rp817
sba(iexample
Example
p818
(dp819
g5
Nsg6
S'20 July 2016 non-US'
p820
sg8
Nsg9
g10
(S'\x07\xe0\x07\x14'
p821
tp822
Rp823
sba(iexample
Example
p824
(dp825
g5
Nsg6
S'September the 2nd 2005 US'
p826
sg8
Nsg9
g10
(S'\x07\xd5\t\x02'
p827
tp828
Rp829
sba(iexample
Example
p830
(dp831
g5
Nsg6
S'7 16 2044 US'
p832
sg8
Nsg9
g10
(S'\x07\xfc\x07\x10'
p833
tp834
Rp835
sba(iexample
Example
p836
(dp837
g5
Nsg6
S'6 2 1961 US'
p838
sg8
Nsg9
g10
(S'\x07\xa9\x06\x02'
p839
tp840
Rp841
sba(iexample
Example
p842
(dp843
g5
Nsg6
S'13 1 19 non-US'
p844
sg8
Nsg9
g10
(S'\x07\x7f\x01\r'
p845
tp846
Rp847
sba(iexample
Example
p848
(dp849
g5
Nsg6
S'09 05 71 non-US'
p850
sg8
Nsg9
g10
(S'\x07\xb3\x05\t'
p851
tp852
Rp853
sba(iexample
Example
p854
(dp855
g5
Nsg6
S'10 3 84 US'
p856
sg8
Nsg9
g10
(S'\x07\xc0\n\x03'
p857
tp858
Rp859
sba(iexample
Example
p860
(dp861
g5
Nsg6
S'May the 31st 1922 US'
p862
sg8
Nsg9
g10
(S'\x07\x82\x05\x1f'
p863
tp864
Rp865
sba(iexample
Example
p866
(dp867
g5
Nsg6
S'13th April 1928 non-US'
p868
sg8
Nsg9
g10
(S'\x07\x88\x04\r'
p869
tp870
Rp871
sba(iexample
Example
p872
(dp873
g5
Nsg6
S'May the 19th 2022 US'
p874
sg8
Nsg9
g10
(S'\x07\xe6\x05\x13'
p875
tp876
Rp877
sba(iexample
Example
p878
(dp879
g5
Nsg6
S'2017 07 09 non-US'
p880
sg8
Nsg9
g10
(S'\x07\xe1\x07\t'
p881
tp882
Rp883
sba(iexample
Example
p884
(dp885
g5
Nsg6
S'October 14 2019 US'
p886
sg8
Nsg9
g10
(S'\x07\xe3\n\x0e'
p887
tp888
Rp889
sba(iexample
Example
p890
(dp891
g5
Nsg6
S'04 10 16 US'
p892
sg8
Nsg9
g10
(S'\x07|\x04\n'
p893
tp894
Rp895
sba(iexample
Example
p896
(dp897
g5
Nsg6
S'01 06 80 US'
p898
sg8
Nsg9
g10
(S'\x07\xbc\x01\x06'
p899
tp900
Rp901
sba(iexample
Example
p902
(dp903
g5
Nsg6
S'12 Aug 2013 non-US'
p904
sg8
Nsg9
g10
(S'\x07\xdd\x08\x0c'
p905
tp906
Rp907
sba(iexample
Example
p908
(dp909
g5
Nsg6
S'1 25 1985 US'
p910
sg8
Nsg9
g10
(S'\x07\xc1\x01\x19'
p911
tp912
Rp913
sba(iexample
Example
p914
(dp915
g5
Nsg6
S'2052 01 05 non-US'
p916
sg8
Nsg9
g10
(S'\x08\x04\x01\x05'
p917
tp918
Rp919
sba(iexample
Example
p920
(dp921
g5
Nsg6
S'6 Nov 2061 non-US'
p922
sg8
Nsg9
g10
(S'\x08\r\x0b\x06'
p923
tp924
Rp925
sba(iexample
Example
p926
(dp927
g5
Nsg6
S'March 23 1933 US'
p928
sg8
Nsg9
g10
(S'\x07\x8d\x03\x17'
p929
tp930
Rp931
sba(iexample
Example
p932
(dp933
g5
Nsg6
S'1964 06 05 non-US'
p934
sg8
Nsg9
g10
(S'\x07\xac\x06\x05'
p935
tp936
Rp937
sba(iexample
Example
p938
(dp939
g5
Nsg6
S'Nov the 3rd 2080 US'
p940
sg8
Nsg9
g10
(S'\x08 \x0b\x03'
p941
tp942
Rp943
sba(iexample
Example
p944
(dp945
g5
Nsg6
S'Mar the 18th 2078 US'
p946
sg8
Nsg9
g10
(S'\x08\x1e\x03\x12'
p947
tp948
Rp949
sba(iexample
Example
p950
(dp951
g5
Nsg6
S'28th October 1903 non-US'
p952
sg8
Nsg9
g10
(S'\x07o\n\x1c'
p953
tp954
Rp955
sba(iexample
Example
p956
(dp957
g5
Nsg6
S'2022 01 02 US'
p958
sg8
Nsg9
g10
(S'\x07\xe6\x01\x02'
p959
tp960
Rp961
sba(iexample
Example
p962
(dp963
g5
Nsg6
S'November 3 2079 US'
p964
sg8
Nsg9
g10
(S'\x08\x1f\x0b\x03'
p965
tp966
Rp967
sba(iexample
Example
p968
(dp969
g5
Nsg6
S'27 Jul 1905 non-US'
p970
sg8
Nsg9
g10
(S'\x07q\x07\x1b'
p971
tp972
Rp973
sba(iexample
Example
p974
(dp975
g5
Nsg6
S'12th January 1941 non-US'
p976
sg8
Nsg9
g10
(S'\x07\x95\x01\x0c'
p977
tp978
Rp979
sba(iexample
Example
p980
(dp981
g5
Nsg6
S'2076 05 03 non-US'
p982
sg8
Nsg9
g10
(S'\x08\x1c\x05\x03'
p983
tp984
Rp985
sba(iexample
Example
p986
(dp987
g5
Nsg6
S'3 1 2072 US'
p988
sg8
Nsg9
g10
(S'\x08\x18\x03\x01'
p989
tp990
Rp991
sba(iexample
Example
p992
(dp993
g5
Nsg6
S'Jan 29 2059 US'
p994
sg8
Nsg9
g10
(S'\x08\x0b\x01\x1d'
p995
tp996
Rp997
sba(iexample
Example
p998
(dp999
g5
Nsg6
S'27th June 2075 non-US'
p1000
sg8
Nsg9
g10
(S'\x08\x1b\x06\x1b'
p1001
tp1002
Rp1003
sba(iexample
Example
p1004
(dp1005
g5
Nsg6
S'2055 09 06 non-US'
p1006
sg8
Nsg9
g10
(S'\x08\x07\t\x06'
p1007
tp1008
Rp1009
sba(iexample
Example
p1010
(dp1011
g5
Nsg6
S'2 2 1910 non-US'
p1012
sg8
Nsg9
g10
(S'\x07v\x02\x02'
p1013
tp1014
Rp1015
sba(iexample
Example
p1016
(dp1017
g5
Nsg6
S'December the 6th 1993 US'
p1018
sg8
Nsg9
g10
(S'\x07\xc9\x0c\x06'
p1019
tp1020
Rp1021
sba(iexample
Example
p1022
(dp1023
g5
Nsg6
S'1 25 67 US'
p1024
sg8
Nsg9
g10
(S'\x07\xaf\x01\x19'
p1025
tp1026
Rp1027
sba(iexample
Example
p1028
(dp1029
g5
Nsg6
S'05 02 2087 US'
p1030
sg8
Nsg9
g10
(S"\x08'\x05\x02"
p1031
tp1032
Rp1033
sba(iexample
Example
p1034
(dp1035
g5
Nsg6
S'10 25 2052 US'
p1036
sg8
Nsg9
g10
(S'\x08\x04\n\x19'
p1037
tp1038
Rp1039
sba(iexample
Example
p1040
(dp1041
g5
Nsg6
S'16 March 2093 non-US'
p1042
sg8
Nsg9
g10
(S'\x08-\x03\x10'
p1043
tp1044
Rp1045
sba(iexample
Example
p1046
(dp1047
g5
Nsg6
S'1954 09 08 non-US'
p1048
sg8
Nsg9
g10
(S'\x07\xa2\t\x08'
p1049
tp1050
Rp1051
sba(iexample
Example
p1052
(dp1053
g5
Nsg6
S'November the 20th 1922 US'
p1054
sg8
Nsg9
g10
(S'\x07\x82\x0b\x14'
p1055
tp1056
Rp1057
sba(iexample
Example
p1058
(dp1059
g5
Nsg6
S'05 04 1947 non-US'
p1060
sg8
Nsg9
g10
(S'\x07\x9b\x04\x05'
p1061
tp1062
Rp1063
sba(iexample
Example
p1064
(dp1065
g5
Nsg6
S'September the 16th 1974 US'
p1066
sg8
Nsg9
g10
(S'\x07\xb6\t\x10'
p1067
tp1068
Rp1069
sba(iexample
Example
p1070
(dp1071
g5
Nsg6
S'4 October 1963 non-US'
p1072
sg8
Nsg9
g10
(S'\x07\xab\n\x04'
p1073
tp1074
Rp1075
sba(iexample
Example
p1076
(dp1077
g5
Nsg6
S'20 August 2083 non-US'
p1078
sg8
Nsg9
g10
(S'\x08#\x08\x14'
p1079
tp1080
Rp1081
sba(iexample
Example
p1082
(dp1083
g5
Nsg6
S'30 Dec 1915 non-US'
p1084
sg8
Nsg9
g10
(S'\x07{\x0c\x1e'
p1085
tp1086
Rp1087
sba(iexample
Example
p1088
(dp1089
g5
Nsg6
S'25th May 1968 non-US'
p1090
sg8
Nsg9
g10
(S'\x07\xb0\x05\x19'
p1091
tp1092
Rp1093
sba(iexample
Example
p1094
(dp1095
g5
Nsg6
S'May 29 1931 US'
p1096
sg8
Nsg9
g10
(S'\x07\x8b\x05\x1d'
p1097
tp1098
Rp1099
sba(iexample
Example
p1100
(dp1101
g5
Nsg6
S'01 09 86 US'
p1102
sg8
Nsg9
g10
(S'\x07\xc2\x01\t'
p1103
tp1104
Rp1105
sba(iexample
Example
p1106
(dp1107
g5
Nsg6
S'October the 30th 1907 US'
p1108
sg8
Nsg9
g10
(S'\x07s\n\x1e'
p1109
tp1110
Rp1111
sba(iexample
Example
p1112
(dp1113
g5
Nsg6
S'07 09 1913 US'
p1114
sg8
Nsg9
g10
(S'\x07y\x07\t'
p1115
tp1116
Rp1117
sba(iexample
Example
p1118
(dp1119
g5
Nsg6
S'Jan the 15th 1932 US'
p1120
sg8
Nsg9
g10
(S'\x07\x8c\x01\x0f'
p1121
tp1122
Rp1123
sba(iexample
Example
p1124
(dp1125
g5
Nsg6
S'7 May 1926 non-US'
p1126
sg8
Nsg9
g10
(S'\x07\x86\x05\x07'
p1127
tp1128
Rp1129
sba(iexample
Example
p1130
(dp1131
g5
Nsg6
S'2002 05 08 non-US'
p1132
sg8
Nsg9
g10
(S'\x07\xd2\x05\x08'
p1133
tp1134
Rp1135
sba(iexample
Example
p1136
(dp1137
g5
Nsg6
S'7 3 2013 non-US'
p1138
sg8
Nsg9
g10
(S'\x07\xdd\x03\x07'
p1139
tp1140
Rp1141
sba(iexample
Example
p1142
(dp1143
g5
Nsg6
S'2025 04 06 non-US'
p1144
sg8
Nsg9
g10
(S'\x07\xe9\x04\x06'
p1145
tp1146
Rp1147
sba(iexample
Example
p1148
(dp1149
g5
Nsg6
S'29th June 2007 non-US'
p1150
sg8
Nsg9
g10
(S'\x07\xd7\x06\x1d'
p1151
tp1152
Rp1153
sba(iexample
Example
p1154
(dp1155
g5
Nsg6
S'29th May 1942 non-US'
p1156
sg8
Nsg9
g10
(S'\x07\x96\x05\x1d'
p1157
tp1158
Rp1159
sba(iexample
Example
p1160
(dp1161
g5
Nsg6
S'Jul the 31st 2029 US'
p1162
sg8
Nsg9
g10
(S'\x07\xed\x07\x1f'
p1163
tp1164
Rp1165
sba(iexample
Example
p1166
(dp1167
g5
Nsg6
S'03 03 1997 US'
p1168
sg8
Nsg9
g10
(S'\x07\xcd\x03\x03'
p1169
tp1170
Rp1171
sba(iexample
Example
p1172
(dp1173
g5
Nsg6
S'August the 28th 2089 US'
p1174
sg8
Nsg9
g10
(S'\x08)\x08\x1c'
p1175
tp1176
Rp1177
sba(iexample
Example
p1178
(dp1179
g5
Nsg6
S'3rd Jul 1955 non-US'
p1180
sg8
Nsg9
g10
(S'\x07\xa3\x07\x03'
p1181
tp1182
Rp1183
sba(iexample
Example
p1184
(dp1185
g5
Nsg6
S'May the 7th 2071 US'
p1186
sg8
Nsg9
g10
(S'\x08\x17\x05\x07'
p1187
tp1188
Rp1189
sba(iexample
Example
p1190
(dp1191
g5
Nsg6
S'27 March 2061 non-US'
p1192
sg8
Nsg9
g10
(S'\x08\r\x03\x1b'
p1193
tp1194
Rp1195
sba(iexample
Example
p1196
(dp1197
g5
Nsg6
S'20 8 2015 non-US'
p1198
sg8
Nsg9
g10
(S'\x07\xdf\x08\x14'
p1199
tp1200
Rp1201
sba(iexample
Example
p1202
(dp1203
g5
Nsg6
S'31 Jan 1934 non-US'
p1204
sg8
Nsg9
g10
(S'\x07\x8e\x01\x1f'
p1205
tp1206
Rp1207
sba(iexample
Example
p1208
(dp1209
g5
Nsg6
S'6 Dec 2041 non-US'
p1210
sg8
Nsg9
g10
(S'\x07\xf9\x0c\x06'
p1211
tp1212
Rp1213
sba(iexample
Example
p1214
(dp1215
g5
Nsg6
S'November 13 2037 US'
p1216
sg8
Nsg9
g10
(S'\x07\xf5\x0b\r'
p1217
tp1218
Rp1219
sba(iexample
Example
p1220
(dp1221
g5
Nsg6
S'Feb 26 2001 US'
p1222
sg8
Nsg9
g10
(S'\x07\xd1\x02\x1a'
p1223
tp1224
Rp1225
sba(iexample
Example
p1226
(dp1227
g5
Nsg6
S'1904 04 08 non-US'
p1228
sg8
Nsg9
g10
(S'\x07p\x04\x08'
p1229
tp1230
Rp1231
sba(iexample
Example
p1232
(dp1233
g5
Nsg6
S'6 3 08 US'
p1234
sg8
Nsg9
g10
(S'\x07t\x06\x03'
p1235
tp1236
Rp1237
sba(iexample
Example
p1238
(dp1239
g5
Nsg6
S'11th Jul 1925 non-US'
p1240
sg8
Nsg9
g10
(S'\x07\x85\x07\x0b'
p1241
tp1242
Rp1243
sba(iexample
Example
p1244
(dp1245
g5
Nsg6
S'3 February 1910 non-US'
p1246
sg8
Nsg9
g10
(S'\x07v\x02\x03'
p1247
tp1248
Rp1249
sba(iexample
Example
p1250
(dp1251
g5
Nsg6
S'18 November 2072 non-US'
p1252
sg8
Nsg9
g10
(S'\x08\x18\x0b\x12'
p1253
tp1254
Rp1255
sba(iexample
Example
p1256
(dp1257
g5
Nsg6
S'2063 04 01 non-US'
p1258
sg8
Nsg9
g10
(S'\x08\x0f\x04\x01'
p1259
tp1260
Rp1261
sba(iexample
Example
p1262
(dp1263
g5
Nsg6
S'1 11 35 US'
p1264
sg8
Nsg9
g10
(S'\x07\x8f\x01\x0b'
p1265
tp1266
Rp1267
sba(iexample
Example
p1268
(dp1269
g5
Nsg6
S'Dec 2 2096 US'
p1270
sg8
Nsg9
g10
(S'\x080\x0c\x02'
p1271
tp1272
Rp1273
sba(iexample
Example
p1274
(dp1275
g5
Nsg6
S'7 6 17 US'
p1276
sg8
Nsg9
g10
(S'\x07}\x07\x06'
p1277
tp1278
Rp1279
sba(iexample
Example
p1280
(dp1281
g5
Nsg6
S'1923 07 06 non-US'
p1282
sg8
Nsg9
g10
(S'\x07\x83\x07\x06'
p1283
tp1284
Rp1285
sba(iexample
Example
p1286
(dp1287
g5
Nsg6
S'19 7 92 non-US'
p1288
sg8
Nsg9
g10
(S'\x07\xc8\x07\x13'
p1289
tp1290
Rp1291
sba(iexample
Example
p1292
(dp1293
g5
Nsg6
S'March 6 2087 US'
p1294
sg8
Nsg9
g10
(S"\x08'\x03\x06"
p1295
tp1296
Rp1297
sba(iexample
Example
p1298
(dp1299
g5
Nsg6
S'27th Sep 1937 non-US'
p1300
sg8
Nsg9
g10
(S'\x07\x91\t\x1b'
p1301
tp1302
Rp1303
sba(iexample
Example
p1304
(dp1305
g5
Nsg6
S'Dec 24 1976 US'
p1306
sg8
Nsg9
g10
(S'\x07\xb8\x0c\x18'
p1307
tp1308
Rp1309
sba(iexample
Example
p1310
(dp1311
g5
Nsg6
S'1969 05 05 non-US'
p1312
sg8
Nsg9
g10
(S'\x07\xb1\x05\x05'
p1313
tp1314
Rp1315
sba(iexample
Example
p1316
(dp1317
g5
Nsg6
S'20th September 2078 non-US'
p1318
sg8
Nsg9
g10
(S'\x08\x1e\t\x14'
p1319
tp1320
Rp1321
sba(iexample
Example
p1322
(dp1323
g5
Nsg6
S'2036 01 08 non-US'
p1324
sg8
Nsg9
g10
(S'\x07\xf4\x01\x08'
p1325
tp1326
Rp1327
sba(iexample
Example
p1328
(dp1329
g5
Nsg6
S'2011 06 03 non-US'
p1330
sg8
Nsg9
g10
(S'\x07\xdb\x06\x03'
p1331
tp1332
Rp1333
sba(iexample
Example
p1334
(dp1335
g5
Nsg6
S'Dec 23 2052 US'
p1336
sg8
Nsg9
g10
(S'\x08\x04\x0c\x17'
p1337
tp1338
Rp1339
sba(iexample
Example
p1340
(dp1341
g5
Nsg6
S'28 6 20 non-US'
p1342
sg8
Nsg9
g10
(S'\x07\x80\x06\x1c'
p1343
tp1344
Rp1345
sba(iexample
Example
p1346
(dp1347
g5
Nsg6
S'February the 4th 2055 US'
p1348
sg8
Nsg9
g10
(S'\x08\x07\x02\x04'
p1349
tp1350
Rp1351
sba(iexample
Example
p1352
(dp1353
g5
Nsg6
S'06 04 40 non-US'
p1354
sg8
Nsg9
g10
(S'\x07\x94\x04\x06'
p1355
tp1356
Rp1357
sba(iexample
Example
p1358
(dp1359
g5
Nsg6
S'21 February 1910 non-US'
p1360
sg8
Nsg9
g10
(S'\x07v\x02\x15'
p1361
tp1362
Rp1363
sba(iexample
Example
p1364
(dp1365
g5
Nsg6
S'1912 06 10 non-US'
p1366
sg8
Nsg9
g10
(S'\x07x\x06\n'
p1367
tp1368
Rp1369
sba(iexample
Example
p1370
(dp1371
g5
Nsg6
S'Dec the 23rd 2032 US'
p1372
sg8
Nsg9
g10
(S'\x07\xf0\x0c\x17'
p1373
tp1374
Rp1375
sba(iexample
Example
p1376
(dp1377
g5
Nsg6
S'Jan the 28th 2054 US'
p1378
sg8
Nsg9
g10
(S'\x08\x06\x01\x1c'
p1379
tp1380
Rp1381
sba(iexample
Example
p1382
(dp1383
g5
Nsg6
S'November the 12th 1934 US'
p1384
sg8
Nsg9
g10
(S'\x07\x8e\x0b\x0c'
p1385
tp1386
Rp1387
sba(iexample
Example
p1388
(dp1389
g5
Nsg6
S'June 5 1948 US'
p1390
sg8
Nsg9
g10
(S'\x07\x9c\x06\x05'
p1391
tp1392
Rp1393
sba(iexample
Example
p1394
(dp1395
g5
Nsg6
S'November 6 2079 US'
p1396
sg8
Nsg9
g10
(S'\x08\x1f\x0b\x06'
p1397
tp1398
Rp1399
sba(iexample
Example
p1400
(dp1401
g5
Nsg6
S'2064 01 07 US'
p1402
sg8
Nsg9
g10
(S'\x08\x10\x01\x07'
p1403
tp1404
Rp1405
sba(iexample
Example
p1406
(dp1407
g5
Nsg6
S'Jan the 22nd 1980 US'
p1408
sg8
Nsg9
g10
(S'\x07\xbc\x01\x16'
p1409
tp1410
Rp1411
sba(iexample
Example
p1412
(dp1413
g5
Nsg6
S'23 Aug 2045 non-US'
p1414
sg8
Nsg9
g10
(S'\x07\xfd\x08\x17'
p1415
tp1416
Rp1417
sba(iexample
Example
p1418
(dp1419
g5
Nsg6
S'1921 01 09 non-US'
p1420
sg8
Nsg9
g10
(S'\x07\x81\x01\t'
p1421
tp1422
Rp1423
sba(iexample
Example
p1424
(dp1425
g5
Nsg6
S'Oct 12 2069 US'
p1426
sg8
Nsg9
g10
(S'\x08\x15\n\x0c'
p1427
tp1428
Rp1429
sba(iexample
Example
p1430
(dp1431
g5
Nsg6
S'Dec the 11th 1933 US'
p1432
sg8
Nsg9
g10
(S'\x07\x8d\x0c\x0b'
p1433
tp1434
Rp1435
sba(iexample
Example
p1436
(dp1437
g5
Nsg6
S'20 10 2012 non-US'
p1438
sg8
Nsg9
g10
(S'\x07\xdc\n\x14'
p1439
tp1440
Rp1441
sba(iexample
Example
p1442
(dp1443
g5
Nsg6
S'February 24 1987 US'
p1444
sg8
Nsg9
g10
(S'\x07\xc3\x02\x18'
p1445
tp1446
Rp1447
sba(iexample
Example
p1448
(dp1449
g5
Nsg6
S'7 12 1909 non-US'
p1450
sg8
Nsg9
g10
(S'\x07u\x0c\x07'
p1451
tp1452
Rp1453
sba(iexample
Example
p1454
(dp1455
g5
Nsg6
S'9 24 27 US'
p1456
sg8
Nsg9
g10
(S'\x07\x87\t\x18'
p1457
tp1458
Rp1459
sba(iexample
Example
p1460
(dp1461
g5
Nsg6
S'29 July 1978 non-US'
p1462
sg8
Nsg9
g10
(S'\x07\xba\x07\x1d'
p1463
tp1464
Rp1465
sba(iexample
Example
p1466
(dp1467
g5
Nsg6
S'22nd March 2099 non-US'
p1468
sg8
Nsg9
g10
(S'\x083\x03\x16'
p1469
tp1470
Rp1471
sba(iexample
Example
p1472
(dp1473
g5
Nsg6
S'12 11 75 US'
p1474
sg8
Nsg9
g10
(S'\x07\xb7\x0c\x0b'
p1475
tp1476
Rp1477
sba(iexample
Example
p1478
(dp1479
g5
Nsg6
S'17th October 2029 non-US'
p1480
sg8
Nsg9
g10
(S'\x07\xed\n\x11'
p1481
tp1482
Rp1483
sba(iexample
Example
p1484
(dp1485
g5
Nsg6
S'22nd February 2001 non-US'
p1486
sg8
Nsg9
g10
(S'\x07\xd1\x02\x16'
p1487
tp1488
Rp1489
sba(iexample
Example
p1490
(dp1491
g5
Nsg6
S'14 Apr 2099 non-US'
p1492
sg8
Nsg9
g10
(S'\x083\x04\x0e'
p1493
tp1494
Rp1495
sba(iexample
Example
p1496
(dp1497
g5
Nsg6
S'November 3 2068 US'
p1498
sg8
Nsg9
g10
(S'\x08\x14\x0b\x03'
p1499
tp1500
Rp1501
sba(iexample
Example
p1502
(dp1503
g5
Nsg6
S'Jun 18 1953 US'
p1504
sg8
Nsg9
g10
(S'\x07\xa1\x06\x12'
p1505
tp1506
Rp1507
sba(iexample
Example
p1508
(dp1509
g5
Nsg6
S'Jan the 27th 2008 US'
p1510
sg8
Nsg9
g10
(S'\x07\xd8\x01\x1b'
p1511
tp1512
Rp1513
sba(iexample
Example
p1514
(dp1515
g5
Nsg6
S'Oct the 10th 1957 US'
p1516
sg8
Nsg9
g10
(S'\x07\xa5\n\n'
p1517
tp1518
Rp1519
sba(iexample
Example
p1520
(dp1521
g5
Nsg6
S'11 1 13 non-US'
p1522
sg8
Nsg9
g10
(S'\x07y\x01\x0b'
p1523
tp1524
Rp1525
sba(iexample
Example
p1526
(dp1527
g5
Nsg6
S'April 10 2020 US'
p1528
sg8
Nsg9
g10
(S'\x07\xe4\x04\n'
p1529
tp1530
Rp1531
sba(iexample
Example
p1532
(dp1533
g5
Nsg6
S'25th January 2091 non-US'
p1534
sg8
Nsg9
g10
(S'\x08+\x01\x19'
p1535
tp1536
Rp1537
sba(iexample
Example
p1538
(dp1539
g5
Nsg6
S'Mar the 13th 1959 US'
p1540
sg8
Nsg9
g10
(S'\x07\xa7\x03\r'
p1541
tp1542
Rp1543
sba(iexample
Example
p1544
(dp1545
g5
Nsg6
S'23 February 2093 non-US'
p1546
sg8
Nsg9
g10
(S'\x08-\x02\x17'
p1547
tp1548
Rp1549
sba(iexample
Example
p1550
(dp1551
g5
Nsg6
S'4 Apr 1988 non-US'
p1552
sg8
Nsg9
g10
(S'\x07\xc4\x04\x04'
p1553
tp1554
Rp1555
sba(iexample
Example
p1556
(dp1557
g5
Nsg6
S'Apr the 11th 2097 US'
p1558
sg8
Nsg9
g10
(S'\x081\x04\x0b'
p1559
tp1560
Rp1561
sba(iexample
Example
p1562
(dp1563
g5
Nsg6
S'June 10 1960 US'
p1564
sg8
Nsg9
g10
(S'\x07\xa8\x06\n'
p1565
tp1566
Rp1567
sba(iexample
Example
p1568
(dp1569
g5
Nsg6
S'June 10 1962 US'
p1570
sg8
Nsg9
g10
(S'\x07\xaa\x06\n'
p1571
tp1572
Rp1573
sba(iexample
Example
p1574
(dp1575
g5
Nsg6
S'26th June 2089 non-US'
p1576
sg8
Nsg9
g10
(S'\x08)\x06\x1a'
p1577
tp1578
Rp1579
sba(iexample
Example
p1580
(dp1581
g5
Nsg6
S'Aug the 30th 1991 US'
p1582
sg8
Nsg9
g10
(S'\x07\xc7\x08\x1e'
p1583
tp1584
Rp1585
sba(iexample
Example
p1586
(dp1587
g5
Nsg6
S'12 27 12 US'
p1588
sg8
Nsg9
g10
(S'\x07x\x0c\x1b'
p1589
tp1590
Rp1591
sba(iexample
Example
p1592
(dp1593
g5
Nsg6
S'10th Dec 1902 non-US'
p1594
sg8
Nsg9
g10
(S'\x07n\x0c\n'
p1595
tp1596
Rp1597
sba(iexample
Example
p1598
(dp1599
g5
Nsg6
S'1902 07 08 non-US'
p1600
sg8
Nsg9
g10
(S'\x07n\x07\x08'
p1601
tp1602
Rp1603
sba(iexample
Example
p1604
(dp1605
g5
Nsg6
S'Nov the 4th 2077 US'
p1606
sg8
Nsg9
g10
(S'\x08\x1d\x0b\x04'
p1607
tp1608
Rp1609
sba(iexample
Example
p1610
(dp1611
g5
Nsg6
S'03 01 01 US'
p1612
sg8
Nsg9
g10
(S'\x07m\x03\x01'
p1613
tp1614
Rp1615
sba(iexample
Example
p1616
(dp1617
g5
Nsg6
S'7th Aug 1903 non-US'
p1618
sg8
Nsg9
g10
(S'\x07o\x08\x07'
p1619
tp1620
Rp1621
sba(iexample
Example
p1622
(dp1623
g5
Nsg6
S'03 01 05 US'
p1624
sg8
Nsg9
g10
(S'\x07q\x03\x01'
p1625
tp1626
Rp1627
sba(iexample
Example
p1628
(dp1629
g5
Nsg6
S'2099 08 09 non-US'
p1630
sg8
Nsg9
g10
(S'\x083\x08\t'
p1631
tp1632
Rp1633
sba(iexample
Example
p1634
(dp1635
g5
Nsg6
S'Aug 31 2045 US'
p1636
sg8
Nsg9
g10
(S'\x07\xfd\x08\x1f'
p1637
tp1638
Rp1639
sba(iexample
Example
p1640
(dp1641
g5
Nsg6
S'2099 08 07 non-US'
p1642
sg8
Nsg9
g10
(S'\x083\x08\x07'
p1643
tp1644
Rp1645
sba(iexample
Example
p1646
(dp1647
g5
Nsg6
S'25th Nov 1948 non-US'
p1648
sg8
Nsg9
g10
(S'\x07\x9c\x0b\x19'
p1649
tp1650
Rp1651
sba(iexample
Example
p1652
(dp1653
g5
Nsg6
S'February 15 1937 US'
p1654
sg8
Nsg9
g10
(S'\x07\x91\x02\x0f'
p1655
tp1656
Rp1657
sba(iexample
Example
p1658
(dp1659
g5
Nsg6
S'2027 05 05 non-US'
p1660
sg8
Nsg9
g10
(S'\x07\xeb\x05\x05'
p1661
tp1662
Rp1663
sba(iexample
Example
p1664
(dp1665
g5
Nsg6
S'1925 08 01 non-US'
p1666
sg8
Nsg9
g10
(S'\x07\x85\x08\x01'
p1667
tp1668
Rp1669
sba(iexample
Example
p1670
(dp1671
g5
Nsg6
S'2041 08 09 non-US'
p1672
sg8
Nsg9
g10
(S'\x07\xf9\x08\t'
p1673
tp1674
Rp1675
sba(iexample
Example
p1676
(dp1677
g5
Nsg6
S'28th Dec 1970 non-US'
p1678
sg8
Nsg9
g10
(S'\x07\xb2\x0c\x1c'
p1679
tp1680
Rp1681
sba(iexample
Example
p1682
(dp1683
g5
Nsg6
S'1 3 95 US'
p1684
sg8
Nsg9
g10
(S'\x07\xcb\x01\x03'
p1685
tp1686
Rp1687
sba(iexample
Example
p1688
(dp1689
g5
Nsg6
S'30th November 1987 non-US'
p1690
sg8
Nsg9
g10
(S'\x07\xc3\x0b\x1e'
p1691
tp1692
Rp1693
sba(iexample
Example
p1694
(dp1695
g5
Nsg6
S'7 12 79 non-US'
p1696
sg8
Nsg9
g10
(S'\x07\xbb\x0c\x07'
p1697
tp1698
Rp1699
sba(iexample
Example
p1700
(dp1701
g5
Nsg6
S'24 January 1906 non-US'
p1702
sg8
Nsg9
g10
(S'\x07r\x01\x18'
p1703
tp1704
Rp1705
sba(iexample
Example
p1706
(dp1707
g5
Nsg6
S'13th March 2036 non-US'
p1708
sg8
Nsg9
g10
(S'\x07\xf4\x03\r'
p1709
tp1710
Rp1711
sba(iexample
Example
p1712
(dp1713
g5
Nsg6
S'6th Mar 2093 non-US'
p1714
sg8
Nsg9
g10
(S'\x08-\x03\x06'
p1715
tp1716
Rp1717
sba(iexample
Example
p1718
(dp1719
g5
Nsg6
S'2058 08 04 non-US'
p1720
sg8
Nsg9
g10
(S'\x08\n\x08\x04'
p1721
tp1722
Rp1723
sba(iexample
Example
p1724
(dp1725
g5
Nsg6
S'26th December 1926 non-US'
p1726
sg8
Nsg9
g10
(S'\x07\x86\x0c\x1a'
p1727
tp1728
Rp1729
sba(iexample
Example
p1730
(dp1731
g5
Nsg6
S'27 12 72 non-US'
p1732
sg8
Nsg9
g10
(S'\x07\xb4\x0c\x1b'
p1733
tp1734
Rp1735
sba(iexample
Example
p1736
(dp1737
g5
Nsg6
S'November the 4th 1991 US'
p1738
sg8
Nsg9
g10
(S'\x07\xc7\x0b\x04'
p1739
tp1740
Rp1741
sba(iexample
Example
p1742
(dp1743
g5
Nsg6
S'July 27 2067 US'
p1744
sg8
Nsg9
g10
(S'\x08\x13\x07\x1b'
p1745
tp1746
Rp1747
sba(iexample
Example
p1748
(dp1749
g5
Nsg6
S'2nd September 1954 non-US'
p1750
sg8
Nsg9
g10
(S'\x07\xa2\t\x02'
p1751
tp1752
Rp1753
sba(iexample
Example
p1754
(dp1755
g5
Nsg6
S'3 October 1956 non-US'
p1756
sg8
Nsg9
g10
(S'\x07\xa4\n\x03'
p1757
tp1758
Rp1759
sba(iexample
Example
p1760
(dp1761
g5
Nsg6
S'December 24 2062 US'
p1762
sg8
Nsg9
g10
(S'\x08\x0e\x0c\x18'
p1763
tp1764
Rp1765
sba(iexample
Example
p1766
(dp1767
g5
Nsg6
S'03 02 74 non-US'
p1768
sg8
Nsg9
g10
(S'\x07\xb6\x02\x03'
p1769
tp1770
Rp1771
sba(iexample
Example
p1772
(dp1773
g5
Nsg6
S'29th March 1900 non-US'
p1774
sg8
Nsg9
g10
(S'\x07l\x03\x1d'
p1775
tp1776
Rp1777
sba(iexample
Example
p1778
(dp1779
g5
Nsg6
S'9 Nov 1923 non-US'
p1780
sg8
Nsg9
g10
(S'\x07\x83\x0b\t'
p1781
tp1782
Rp1783
sba(iexample
Example
p1784
(dp1785
g5
Nsg6
S'May the 9th 1990 US'
p1786
sg8
Nsg9
g10
(S'\x07\xc6\x05\t'
p1787
tp1788
Rp1789
sba(iexample
Example
p1790
(dp1791
g5
Nsg6
S'Apr 2 2067 US'
p1792
sg8
Nsg9
g10
(S'\x08\x13\x04\x02'
p1793
tp1794
Rp1795
sba(iexample
Example
p1796
(dp1797
g5
Nsg6
S'25th Oct 1984 non-US'
p1798
sg8
Nsg9
g10
(S'\x07\xc0\n\x19'
p1799
tp1800
Rp1801
sba(iexample
Example
p1802
(dp1803
g5
Nsg6
S'21st July 2009 non-US'
p1804
sg8
Nsg9
g10
(S'\x07\xd9\x07\x15'
p1805
tp1806
Rp1807
sba(iexample
Example
p1808
(dp1809
g5
Nsg6
S'18 5 03 non-US'
p1810
sg8
Nsg9
g10
(S'\x07o\x05\x12'
p1811
tp1812
Rp1813
sba(iexample
Example
p1814
(dp1815
g5
Nsg6
S'3rd Apr 2089 non-US'
p1816
sg8
Nsg9
g10
(S'\x08)\x04\x03'
p1817
tp1818
Rp1819
sba(iexample
Example
p1820
(dp1821
g5
Nsg6
S'Mar the 27th 2028 US'
p1822
sg8
Nsg9
g10
(S'\x07\xec\x03\x1b'
p1823
tp1824
Rp1825
sba(iexample
Example
p1826
(dp1827
g5
Nsg6
S'8 15 2051 US'
p1828
sg8
Nsg9
g10
(S'\x08\x03\x08\x0f'
p1829
tp1830
Rp1831
sba(iexample
Example
p1832
(dp1833
g5
Nsg6
S'Mar the 2nd 1987 US'
p1834
sg8
Nsg9
g10
(S'\x07\xc3\x03\x02'
p1835
tp1836
Rp1837
sba(iexample
Example
p1838
(dp1839
g5
Nsg6
S'2084 08 10 US'
p1840
sg8
Nsg9
g10
(S'\x08$\x08\n'
p1841
tp1842
Rp1843
sba(iexample
Example
p1844
(dp1845
g5
Nsg6
S'June 6 1963 US'
p1846
sg8
Nsg9
g10
(S'\x07\xab\x06\x06'
p1847
tp1848
Rp1849
sba(iexample
Example
p1850
(dp1851
g5
Nsg6
S'2026 03 07 non-US'
p1852
sg8
Nsg9
g10
(S'\x07\xea\x03\x07'
p1853
tp1854
Rp1855
sba(iexample
Example
p1856
(dp1857
g5
Nsg6
S'2 6 2060 non-US'
p1858
sg8
Nsg9
g10
(S'\x08\x0c\x06\x02'
p1859
tp1860
Rp1861
sba(iexample
Example
p1862
(dp1863
g5
Nsg6
S'25 Dec 2055 non-US'
p1864
sg8
Nsg9
g10
(S'\x08\x07\x0c\x19'
p1865
tp1866
Rp1867
sba(iexample
Example
p1868
(dp1869
g5
Nsg6
S'14th Feb 1960 non-US'
p1870
sg8
Nsg9
g10
(S'\x07\xa8\x02\x0e'
p1871
tp1872
Rp1873
sba(iexample
Example
p1874
(dp1875
g5
Nsg6
S'09 01 1989 non-US'
p1876
sg8
Nsg9
g10
(S'\x07\xc5\x01\t'
p1877
tp1878
Rp1879
sba(iexample
Example
p1880
(dp1881
g5
Nsg6
S'1 14 2054 US'
p1882
sg8
Nsg9
g10
(S'\x08\x06\x01\x0e'
p1883
tp1884
Rp1885
sba(iexample
Example
p1886
(dp1887
g5
Nsg6
S'18 9 2032 non-US'
p1888
sg8
Nsg9
g10
(S'\x07\xf0\t\x12'
p1889
tp1890
Rp1891
sba(iexample
Example
p1892
(dp1893
g5
Nsg6
S'04 10 1933 US'
p1894
sg8
Nsg9
g10
(S'\x07\x8d\x04\n'
p1895
tp1896
Rp1897
sba(iexample
Example
p1898
(dp1899
g5
Nsg6
S'4 3 2005 US'
p1900
sg8
Nsg9
g10
(S'\x07\xd5\x04\x03'
p1901
tp1902
Rp1903
sba(iexample
Example
p1904
(dp1905
g5
Nsg6
S'April the 1st 2092 US'
p1906
sg8
Nsg9
g10
(S'\x08,\x04\x01'
p1907
tp1908
Rp1909
sba(iexample
Example
p1910
(dp1911
g5
Nsg6
S'03 01 2097 non-US'
p1912
sg8
Nsg9
g10
(S'\x081\x01\x03'
p1913
tp1914
Rp1915
sba(iexample
Example
p1916
(dp1917
g5
Nsg6
S'07 08 1984 US'
p1918
sg8
Nsg9
g10
(S'\x07\xc0\x07\x08'
p1919
tp1920
Rp1921
sba(iexample
Example
p1922
(dp1923
g5
Nsg6
S'October 5 2066 US'
p1924
sg8
Nsg9
g10
(S'\x08\x12\n\x05'
p1925
tp1926
Rp1927
sba(iexample
Example
p1928
(dp1929
g5
Nsg6
S'7th Aug 2076 non-US'
p1930
sg8
Nsg9
g10
(S'\x08\x1c\x08\x07'
p1931
tp1932
Rp1933
sba(iexample
Example
p1934
(dp1935
g5
Nsg6
S'1994 03 02 non-US'
p1936
sg8
Nsg9
g10
(S'\x07\xca\x03\x02'
p1937
tp1938
Rp1939
sba(iexample
Example
p1940
(dp1941
g5
Nsg6
S'15 Aug 1964 non-US'
p1942
sg8
Nsg9
g10
(S'\x07\xac\x08\x0f'
p1943
tp1944
Rp1945
sba(iexample
Example
p1946
(dp1947
g5
Nsg6
S'May the 31st 2072 US'
p1948
sg8
Nsg9
g10
(S'\x08\x18\x05\x1f'
p1949
tp1950
Rp1951
sba(iexample
Example
p1952
(dp1953
g5
Nsg6
S'16th February 1966 non-US'
p1954
sg8
Nsg9
g10
(S'\x07\xae\x02\x10'
p1955
tp1956
Rp1957
sba(iexample
Example
p1958
(dp1959
g5
Nsg6
S'2018 03 06 non-US'
p1960
sg8
Nsg9
g10
(S'\x07\xe2\x03\x06'
p1961
tp1962
Rp1963
sba(iexample
Example
p1964
(dp1965
g5
Nsg6
S'7 3 1950 US'
p1966
sg8
Nsg9
g10
(S'\x07\x9e\x07\x03'
p1967
tp1968
Rp1969
sba(iexample
Example
p1970
(dp1971
g5
Nsg6
S'2018 03 08 non-US'
p1972
sg8
Nsg9
g10
(S'\x07\xe2\x03\x08'
p1973
tp1974
Rp1975
sba(iexample
Example
p1976
(dp1977
g5
Nsg6
S'3 June 1935 non-US'
p1978
sg8
Nsg9
g10
(S'\x07\x8f\x06\x03'
p1979
tp1980
Rp1981
sba(iexample
Example
p1982
(dp1983
g5
Nsg6
S'27th Aug 2079 non-US'
p1984
sg8
Nsg9
g10
(S'\x08\x1f\x08\x1b'
p1985
tp1986
Rp1987
sba(iexample
Example
p1988
(dp1989
g5
Nsg6
S'Aug 9 2012 US'
p1990
sg8
Nsg9
g10
(S'\x07\xdc\x08\t'
p1991
tp1992
Rp1993
sba(iexample
Example
p1994
(dp1995
g5
Nsg6
S'28th September 1975 non-US'
p1996
sg8
Nsg9
g10
(S'\x07\xb7\t\x1c'
p1997
tp1998
Rp1999
sba(iexample
Example
p2000
(dp2001
g5
Nsg6
S'13 January 1959 non-US'
p2002
sg8
Nsg9
g10
(S'\x07\xa7\x01\r'
p2003
tp2004
Rp2005
sba(iexample
Example
p2006
(dp2007
g5
Nsg6
S'November 18 1907 US'
p2008
sg8
Nsg9
g10
(S'\x07s\x0b\x12'
p2009
tp2010
Rp2011
sba(iexample
Example
p2012
(dp2013
g5
Nsg6
S'10 8 1934 non-US'
p2014
sg8
Nsg9
g10
(S'\x07\x8e\x08\n'
p2015
tp2016
Rp2017
sba(iexample
Example
p2018
(dp2019
g5
Nsg6
S'28 Sep 1918 non-US'
p2020
sg8
Nsg9
g10
(S'\x07~\t\x1c'
p2021
tp2022
Rp2023
sba(iexample
Example
p2024
(dp2025
g5
Nsg6
S'March the 17th 1974 US'
p2026
sg8
Nsg9
g10
(S'\x07\xb6\x03\x11'
p2027
tp2028
Rp2029
sba(iexample
Example
p2030
(dp2031
g5
Nsg6
S'5 Jul 1923 non-US'
p2032
sg8
Nsg9
g10
(S'\x07\x83\x07\x05'
p2033
tp2034
Rp2035
sba(iexample
Example
p2036
(dp2037
g5
Nsg6
S'10 Apr 2032 non-US'
p2038
sg8
Nsg9
g10
(S'\x07\xf0\x04\n'
p2039
tp2040
Rp2041
sba(iexample
Example
p2042
(dp2043
g5
Nsg6
S'10th November 2091 non-US'
p2044
sg8
Nsg9
g10
(S'\x08+\x0b\n'
p2045
tp2046
Rp2047
sba(iexample
Example
p2048
(dp2049
g5
Nsg6
S'09 01 35 US'
p2050
sg8
Nsg9
g10
(S'\x07\x8f\t\x01'
p2051
tp2052
Rp2053
sba(iexample
Example
p2054
(dp2055
g5
Nsg6
S'September the 17th 2086 US'
p2056
sg8
Nsg9
g10
(S'\x08&\t\x11'
p2057
tp2058
Rp2059
sba(iexample
Example
p2060
(dp2061
g5
Nsg6
S'30th Dec 2090 non-US'
p2062
sg8
Nsg9
g10
(S'\x08*\x0c\x1e'
p2063
tp2064
Rp2065
sba(iexample
Example
p2066
(dp2067
g5
Nsg6
S'27th February 1918 non-US'
p2068
sg8
Nsg9
g10
(S'\x07~\x02\x1b'
p2069
tp2070
Rp2071
sba(iexample
Example
p2072
(dp2073
g5
Nsg6
S'06 05 2090 US'
p2074
sg8
Nsg9
g10
(S'\x08*\x06\x05'
p2075
tp2076
Rp2077
sba(iexample
Example
p2078
(dp2079
g5
Nsg6
S'10 4 1951 non-US'
p2080
sg8
Nsg9
g10
(S'\x07\x9f\x04\n'
p2081
tp2082
Rp2083
sba(iexample
Example
p2084
(dp2085
g5
Nsg6
S'March 11 1962 US'
p2086
sg8
Nsg9
g10
(S'\x07\xaa\x03\x0b'
p2087
tp2088
Rp2089
sba(iexample
Example
p2090
(dp2091
g5
Nsg6
S'22 September 2064 non-US'
p2092
sg8
Nsg9
g10
(S'\x08\x10\t\x16'
p2093
tp2094
Rp2095
sba(iexample
Example
p2096
(dp2097
g5
Nsg6
S'Dec the 11th 1900 US'
p2098
sg8
Nsg9
g10
(S'\x07l\x0c\x0b'
p2099
tp2100
Rp2101
sba(iexample
Example
p2102
(dp2103
g5
Nsg6
S'4 17 87 US'
p2104
sg8
Nsg9
g10
(S'\x07\xc3\x04\x11'
p2105
tp2106
Rp2107
sba(iexample
Example
p2108
(dp2109
g5
Nsg6
S'March the 11th 1939 US'
p2110
sg8
Nsg9
g10
(S'\x07\x93\x03\x0b'
p2111
tp2112
Rp2113
sba(iexample
Example
p2114
(dp2115
g5
Nsg6
S'July 31 1981 US'
p2116
sg8
Nsg9
g10
(S'\x07\xbd\x07\x1f'
p2117
tp2118
Rp2119
sba(iexample
Example
p2120
(dp2121
g5
Nsg6
S'2 18 77 US'
p2122
sg8
Nsg9
g10
(S'\x07\xb9\x02\x12'
p2123
tp2124
Rp2125
sba(iexample
Example
p2126
(dp2127
g5
Nsg6
S'Feb the 9th 1993 US'
p2128
sg8
Nsg9
g10
(S'\x07\xc9\x02\t'
p2129
tp2130
Rp2131
sba(iexample
Example
p2132
(dp2133
g5
Nsg6
S'30 March 2030 non-US'
p2134
sg8
Nsg9
g10
(S'\x07\xee\x03\x1e'
p2135
tp2136
Rp2137
sba(iexample
Example
p2138
(dp2139
g5
Nsg6
S'7 14 33 US'
p2140
sg8
Nsg9
g10
(S'\x07\x8d\x07\x0e'
p2141
tp2142
Rp2143
sba(iexample
Example
p2144
(dp2145
g5
Nsg6
S'05 03 22 non-US'
p2146
sg8
Nsg9
g10
(S'\x07\x82\x03\x05'
p2147
tp2148
Rp2149
sba(iexample
Example
p2150
(dp2151
g5
Nsg6
S'10 02 1925 non-US'
p2152
sg8
Nsg9
g10
(S'\x07\x85\x02\n'
p2153
tp2154
Rp2155
sba(iexample
Example
p2156
(dp2157
g5
Nsg6
S'10 07 1935 non-US'
p2158
sg8
Nsg9
g10
(S'\x07\x8f\x07\n'
p2159
tp2160
Rp2161
sba(iexample
Example
p2162
(dp2163
g5
Nsg6
S'08 05 1938 US'
p2164
sg8
Nsg9
g10
(S'\x07\x92\x08\x05'
p2165
tp2166
Rp2167
sba(iexample
Example
p2168
(dp2169
g5
Nsg6
S'03 04 1908 non-US'
p2170
sg8
Nsg9
g10
(S'\x07t\x04\x03'
p2171
tp2172
Rp2173
sba(iexample
Example
p2174
(dp2175
g5
Nsg6
S'08 05 1936 US'
p2176
sg8
Nsg9
g10
(S'\x07\x90\x08\x05'
p2177
tp2178
Rp2179
sba(iexample
Example
p2180
(dp2181
g5
Nsg6
S'08 02 2002 non-US'
p2182
sg8
Nsg9
g10
(S'\x07\xd2\x02\x08'
p2183
tp2184
Rp2185
sba(iexample
Example
p2186
(dp2187
g5
Nsg6
S'13 March 2004 non-US'
p2188
sg8
Nsg9
g10
(S'\x07\xd4\x03\r'
p2189
tp2190
Rp2191
sba(iexample
Example
p2192
(dp2193
g5
Nsg6
S'2019 01 04 non-US'
p2194
sg8
Nsg9
g10
(S'\x07\xe3\x01\x04'
p2195
tp2196
Rp2197
sba(iexample
Example
p2198
(dp2199
g5
Nsg6
S'02 02 2043 non-US'
p2200
sg8
Nsg9
g10
(S'\x07\xfb\x02\x02'
p2201
tp2202
Rp2203
sba(iexample
Example
p2204
(dp2205
g5
Nsg6
S'February 28 2055 US'
p2206
sg8
Nsg9
g10
(S'\x08\x07\x02\x1c'
p2207
tp2208
Rp2209
sba(iexample
Example
p2210
(dp2211
g5
Nsg6
S'6th Jun 1927 non-US'
p2212
sg8
Nsg9
g10
(S'\x07\x87\x06\x06'
p2213
tp2214
Rp2215
sba(iexample
Example
p2216
(dp2217
g5
Nsg6
S'11th Feb 2069 non-US'
p2218
sg8
Nsg9
g10
(S'\x08\x15\x02\x0b'
p2219
tp2220
Rp2221
sba(iexample
Example
p2222
(dp2223
g5
Nsg6
S'September the 8th 1982 US'
p2224
sg8
Nsg9
g10
(S'\x07\xbe\t\x08'
p2225
tp2226
Rp2227
sba(iexample
Example
p2228
(dp2229
g5
Nsg6
S'15th Mar 2084 non-US'
p2230
sg8
Nsg9
g10
(S'\x08$\x03\x0f'
p2231
tp2232
Rp2233
sba(iexample
Example
p2234
(dp2235
g5
Nsg6
S'6 11 1944 non-US'
p2236
sg8
Nsg9
g10
(S'\x07\x98\x0b\x06'
p2237
tp2238
Rp2239
sba(iexample
Example
p2240
(dp2241
g5
Nsg6
S'1954 04 09 non-US'
p2242
sg8
Nsg9
g10
(S'\x07\xa2\x04\t'
p2243
tp2244
Rp2245
sba(iexample
Example
p2246
(dp2247
g5
Nsg6
S'3 18 2065 US'
p2248
sg8
Nsg9
g10
(S'\x08\x11\x03\x12'
p2249
tp2250
Rp2251
sba(iexample
Example
p2252
(dp2253
g5
Nsg6
S'4 30 33 US'
p2254
sg8
Nsg9
g10
(S'\x07\x8d\x04\x1e'
p2255
tp2256
Rp2257
sba(iexample
Example
p2258
(dp2259
g5
Nsg6
S'2 Apr 2073 non-US'
p2260
sg8
Nsg9
g10
(S'\x08\x19\x04\x02'
p2261
tp2262
Rp2263
sba(iexample
Example
p2264
(dp2265
g5
Nsg6
S'8th Oct 1963 non-US'
p2266
sg8
Nsg9
g10
(S'\x07\xab\n\x08'
p2267
tp2268
Rp2269
sba(iexample
Example
p2270
(dp2271
g5
Nsg6
S'1979 06 01 non-US'
p2272
sg8
Nsg9
g10
(S'\x07\xbb\x06\x01'
p2273
tp2274
Rp2275
sba(iexample
Example
p2276
(dp2277
g5
Nsg6
S'19 December 2061 non-US'
p2278
sg8
Nsg9
g10
(S'\x08\r\x0c\x13'
p2279
tp2280
Rp2281
sba(iexample
Example
p2282
(dp2283
g5
Nsg6
S'31 August 1939 non-US'
p2284
sg8
Nsg9
g10
(S'\x07\x93\x08\x1f'
p2285
tp2286
Rp2287
sba(iexample
Example
p2288
(dp2289
g5
Nsg6
S'3 Mar 1930 non-US'
p2290
sg8
Nsg9
g10
(S'\x07\x8a\x03\x03'
p2291
tp2292
Rp2293
sba(iexample
Example
p2294
(dp2295
g5
Nsg6
S'Dec 8 1945 US'
p2296
sg8
Nsg9
g10
(S'\x07\x99\x0c\x08'
p2297
tp2298
Rp2299
sba(iexample
Example
p2300
(dp2301
g5
Nsg6
S'Oct the 16th 1911 US'
p2302
sg8
Nsg9
g10
(S'\x07w\n\x10'
p2303
tp2304
Rp2305
sba(iexample
Example
p2306
(dp2307
g5
Nsg6
S'Oct 20 1958 US'
p2308
sg8
Nsg9
g10
(S'\x07\xa6\n\x14'
p2309
tp2310
Rp2311
sba(iexample
Example
p2312
(dp2313
g5
Nsg6
S'January the 27th 1972 US'
p2314
sg8
Nsg9
g10
(S'\x07\xb4\x01\x1b'
p2315
tp2316
Rp2317
sba(iexample
Example
p2318
(dp2319
g5
Nsg6
S'May the 19th 2034 US'
p2320
sg8
Nsg9
g10
(S'\x07\xf2\x05\x13'
p2321
tp2322
Rp2323
sba(iexample
Example
p2324
(dp2325
g5
Nsg6
S'June the 24th 2002 US'
p2326
sg8
Nsg9
g10
(S'\x07\xd2\x06\x18'
p2327
tp2328
Rp2329
sba(iexample
Example
p2330
(dp2331
g5
Nsg6
S'May 1 1943 US'
p2332
sg8
Nsg9
g10
(S'\x07\x97\x05\x01'
p2333
tp2334
Rp2335
sba(iexample
Example
p2336
(dp2337
g5
Nsg6
S'October the 23rd 2073 US'
p2338
sg8
Nsg9
g10
(S'\x08\x19\n\x17'
p2339
tp2340
Rp2341
sba(iexample
Example
p2342
(dp2343
g5
Nsg6
S'3 Sep 2015 non-US'
p2344
sg8
Nsg9
g10
(S'\x07\xdf\t\x03'
p2345
tp2346
Rp2347
sba(iexample
Example
p2348
(dp2349
g5
Nsg6
S'February 15 1900 US'
p2350
sg8
Nsg9
g10
(S'\x07l\x02\x0f'
p2351
tp2352
Rp2353
sba(iexample
Example
p2354
(dp2355
g5
Nsg6
S'08 04 76 US'
p2356
sg8
Nsg9
g10
(S'\x07\xb8\x08\x04'
p2357
tp2358
Rp2359
sba(iexample
Example
p2360
(dp2361
g5
Nsg6
S'12 Jul 1959 non-US'
p2362
sg8
Nsg9
g10
(S'\x07\xa7\x07\x0c'
p2363
tp2364
Rp2365
sba(iexample
Example
p2366
(dp2367
g5
Nsg6
S'22 July 1920 non-US'
p2368
sg8
Nsg9
g10
(S'\x07\x80\x07\x16'
p2369
tp2370
Rp2371
sba(iexample
Example
p2372
(dp2373
g5
Nsg6
S'28 Dec 2043 non-US'
p2374
sg8
Nsg9
g10
(S'\x07\xfb\x0c\x1c'
p2375
tp2376
Rp2377
sba(iexample
Example
p2378
(dp2379
g5
Nsg6
S'17 Apr 1927 non-US'
p2380
sg8
Nsg9
g10
(S'\x07\x87\x04\x11'
p2381
tp2382
Rp2383
sba(iexample
Example
p2384
(dp2385
g5
Nsg6
S'8 12 1904 non-US'
p2386
sg8
Nsg9
g10
(S'\x07p\x0c\x08'
p2387
tp2388
Rp2389
sba(iexample
Example
p2390
(dp2391
g5
Nsg6
S'October the 4th 2052 US'
p2392
sg8
Nsg9
g10
(S'\x08\x04\n\x04'
p2393
tp2394
Rp2395
sba(iexample
Example
p2396
(dp2397
g5
Nsg6
S'Feb the 10th 1913 US'
p2398
sg8
Nsg9
g10
(S'\x07y\x02\n'
p2399
tp2400
Rp2401
sba(iexample
Example
p2402
(dp2403
g5
Nsg6
S'Apr the 26th 2014 US'
p2404
sg8
Nsg9
g10
(S'\x07\xde\x04\x1a'
p2405
tp2406
Rp2407
sba(iexample
Example
p2408
(dp2409
g5
Nsg6
S'Mar the 12th 1977 US'
p2410
sg8
Nsg9
g10
(S'\x07\xb9\x03\x0c'
p2411
tp2412
Rp2413
sba(iexample
Example
p2414
(dp2415
g5
Nsg6
S'June 8 1938 US'
p2416
sg8
Nsg9
g10
(S'\x07\x92\x06\x08'
p2417
tp2418
Rp2419
sba(iexample
Example
p2420
(dp2421
g5
Nsg6
S'02 04 1914 US'
p2422
sg8
Nsg9
g10
(S'\x07z\x02\x04'
p2423
tp2424
Rp2425
sba(iexample
Example
p2426
(dp2427
g5
Nsg6
S'10 6 81 US'
p2428
sg8
Nsg9
g10
(S'\x07\xbd\n\x06'
p2429
tp2430
Rp2431
sba(iexample
Example
p2432
(dp2433
g5
Nsg6
S'22nd Sep 1923 non-US'
p2434
sg8
Nsg9
g10
(S'\x07\x83\t\x16'
p2435
tp2436
Rp2437
sba(iexample
Example
p2438
(dp2439
g5
Nsg6
S'12 2 1965 US'
p2440
sg8
Nsg9
g10
(S'\x07\xad\x0c\x02'
p2441
tp2442
Rp2443
sba(iexample
Example
p2444
(dp2445
g5
Nsg6
S'2072 08 08 non-US'
p2446
sg8
Nsg9
g10
(S'\x08\x18\x08\x08'
p2447
tp2448
Rp2449
sba(iexample
Example
p2450
(dp2451
g5
Nsg6
S'February 20 1964 US'
p2452
sg8
Nsg9
g10
(S'\x07\xac\x02\x14'
p2453
tp2454
Rp2455
sba(iexample
Example
p2456
(dp2457
g5
Nsg6
S'09 03 88 US'
p2458
sg8
Nsg9
g10
(S'\x07\xc4\t\x03'
p2459
tp2460
Rp2461
sba(iexample
Example
p2462
(dp2463
g5
Nsg6
S'07 05 60 non-US'
p2464
sg8
Nsg9
g10
(S'\x07\xa8\x05\x07'
p2465
tp2466
Rp2467
sba(iexample
Example
p2468
(dp2469
g5
Nsg6
S'May 10 1927 US'
p2470
sg8
Nsg9
g10
(S'\x07\x87\x05\n'
p2471
tp2472
Rp2473
sba(iexample
Example
p2474
(dp2475
g5
Nsg6
S'May 11 2057 US'
p2476
sg8
Nsg9
g10
(S'\x08\t\x05\x0b'
p2477
tp2478
Rp2479
sba(iexample
Example
p2480
(dp2481
g5
Nsg6
S'09 09 1908 non-US'
p2482
sg8
Nsg9
g10
(S'\x07t\t\t'
p2483
tp2484
Rp2485
sba(iexample
Example
p2486
(dp2487
g5
Nsg6
S'11th August 2021 non-US'
p2488
sg8
Nsg9
g10
(S'\x07\xe5\x08\x0b'
p2489
tp2490
Rp2491
sba(iexample
Example
p2492
(dp2493
g5
Nsg6
S'10 08 1996 non-US'
p2494
sg8
Nsg9
g10
(S'\x07\xcc\x08\n'
p2495
tp2496
Rp2497
sba(iexample
Example
p2498
(dp2499
g5
Nsg6
S'6 3 20 non-US'
p2500
sg8
Nsg9
g10
(S'\x07\x80\x03\x06'
p2501
tp2502
Rp2503
sba(iexample
Example
p2504
(dp2505
g5
Nsg6
S'Aug the 29th 2054 US'
p2506
sg8
Nsg9
g10
(S'\x08\x06\x08\x1d'
p2507
tp2508
Rp2509
sba(iexample
Example
p2510
(dp2511
g5
Nsg6
S'11 24 1966 US'
p2512
sg8
Nsg9
g10
(S'\x07\xae\x0b\x18'
p2513
tp2514
Rp2515
sba(iexample
Example
p2516
(dp2517
g5
Nsg6
S'21st March 2085 non-US'
p2518
sg8
Nsg9
g10
(S'\x08%\x03\x15'
p2519
tp2520
Rp2521
sba(iexample
Example
p2522
(dp2523
g5
Nsg6
S'Sep 5 2006 US'
p2524
sg8
Nsg9
g10
(S'\x07\xd6\t\x05'
p2525
tp2526
Rp2527
sba(iexample
Example
p2528
(dp2529
g5
Nsg6
S'Sep 30 2099 US'
p2530
sg8
Nsg9
g10
(S'\x083\t\x1e'
p2531
tp2532
Rp2533
sba(iexample
Example
p2534
(dp2535
g5
Nsg6
S'2037 06 08 US'
p2536
sg8
Nsg9
g10
(S'\x07\xf5\x06\x08'
p2537
tp2538
Rp2539
sba(iexample
Example
p2540
(dp2541
g5
Nsg6
S'January the 3rd 2011 US'
p2542
sg8
Nsg9
g10
(S'\x07\xdb\x01\x03'
p2543
tp2544
Rp2545
sba(iexample
Example
p2546
(dp2547
g5
Nsg6
S'4 16 2014 US'
p2548
sg8
Nsg9
g10
(S'\x07\xde\x04\x10'
p2549
tp2550
Rp2551
sba(iexample
Example
p2552
(dp2553
g5
Nsg6
S'3rd Nov 2027 non-US'
p2554
sg8
Nsg9
g10
(S'\x07\xeb\x0b\x03'
p2555
tp2556
Rp2557
sba(iexample
Example
p2558
(dp2559
g5
Nsg6
S'1918 08 01 non-US'
p2560
sg8
Nsg9
g10
(S'\x07~\x08\x01'
p2561
tp2562
Rp2563
sba(iexample
Example
p2564
(dp2565
g5
Nsg6
S'April the 23rd 2061 US'
p2566
sg8
Nsg9
g10
(S'\x08\r\x04\x17'
p2567
tp2568
Rp2569
sba(iexample
Example
p2570
(dp2571
g5
Nsg6
S'April the 23rd 2069 US'
p2572
sg8
Nsg9
g10
(S'\x08\x15\x04\x17'
p2573
tp2574
Rp2575
sba(iexample
Example
p2576
(dp2577
g5
Nsg6
S'24th November 1961 non-US'
p2578
sg8
Nsg9
g10
(S'\x07\xa9\x0b\x18'
p2579
tp2580
Rp2581
sba(iexample
Example
p2582
(dp2583
g5
Nsg6
S'2056 03 04 non-US'
p2584
sg8
Nsg9
g10
(S'\x08\x08\x03\x04'
p2585
tp2586
Rp2587
sba(iexample
Example
p2588
(dp2589
g5
Nsg6
S'May 2 1954 US'
p2590
sg8
Nsg9
g10
(S'\x07\xa2\x05\x02'
p2591
tp2592
Rp2593
sba(iexample
Example
p2594
(dp2595
g5
Nsg6
S'30th August 1979 non-US'
p2596
sg8
Nsg9
g10
(S'\x07\xbb\x08\x1e'
p2597
tp2598
Rp2599
sba(iexample
Example
p2600
(dp2601
g5
Nsg6
S'Nov the 2nd 1958 US'
p2602
sg8
Nsg9
g10
(S'\x07\xa6\x0b\x02'
p2603
tp2604
Rp2605
sba(iexample
Example
p2606
(dp2607
g5
Nsg6
S'Jan 21 1902 US'
p2608
sg8
Nsg9
g10
(S'\x07n\x01\x15'
p2609
tp2610
Rp2611
sba(iexample
Example
p2612
(dp2613
g5
Nsg6
S'1928 05 02 non-US'
p2614
sg8
Nsg9
g10
(S'\x07\x88\x05\x02'
p2615
tp2616
Rp2617
sba(iexample
Example
p2618
(dp2619
g5
Nsg6
S'28 January 2023 non-US'
p2620
sg8
Nsg9
g10
(S'\x07\xe7\x01\x1c'
p2621
tp2622
Rp2623
sba(iexample
Example
p2624
(dp2625
g5
Nsg6
S'02 09 2030 US'
p2626
sg8
Nsg9
g10
(S'\x07\xee\x02\t'
p2627
tp2628
Rp2629
sba(iexample
Example
p2630
(dp2631
g5
Nsg6
S'29 Apr 2015 non-US'
p2632
sg8
Nsg9
g10
(S'\x07\xdf\x04\x1d'
p2633
tp2634
Rp2635
sba(iexample
Example
p2636
(dp2637
g5
Nsg6
S'06 02 73 non-US'
p2638
sg8
Nsg9
g10
(S'\x07\xb5\x02\x06'
p2639
tp2640
Rp2641
sba(iexample
Example
p2642
(dp2643
g5
Nsg6
S'22 October 1919 non-US'
p2644
sg8
Nsg9
g10
(S'\x07\x7f\n\x16'
p2645
tp2646
Rp2647
sba(iexample
Example
p2648
(dp2649
g5
Nsg6
S'July 17 2001 US'
p2650
sg8
Nsg9
g10
(S'\x07\xd1\x07\x11'
p2651
tp2652
Rp2653
sba(iexample
Example
p2654
(dp2655
g5
Nsg6
S'7 30 2065 US'
p2656
sg8
Nsg9
g10
(S'\x08\x11\x07\x1e'
p2657
tp2658
Rp2659
sba(iexample
Example
p2660
(dp2661
g5
Nsg6
S'Jul 29 2048 US'
p2662
sg8
Nsg9
g10
(S'\x08\x00\x07\x1d'
p2663
tp2664
Rp2665
sba(iexample
Example
p2666
(dp2667
g5
Nsg6
S'06 04 1963 non-US'
p2668
sg8
Nsg9
g10
(S'\x07\xab\x04\x06'
p2669
tp2670
Rp2671
sba(iexample
Example
p2672
(dp2673
g5
Nsg6
S'09 07 1931 non-US'
p2674
sg8
Nsg9
g10
(S'\x07\x8b\x07\t'
p2675
tp2676
Rp2677
sba(iexample
Example
p2678
(dp2679
g5
Nsg6
S'17 8 04 non-US'
p2680
sg8
Nsg9
g10
(S'\x07p\x08\x11'
p2681
tp2682
Rp2683
sba(iexample
Example
p2684
(dp2685
g5
Nsg6
S'July 12 1905 US'
p2686
sg8
Nsg9
g10
(S'\x07q\x07\x0c'
p2687
tp2688
Rp2689
sba(iexample
Example
p2690
(dp2691
g5
Nsg6
S'July 22 1936 US'
p2692
sg8
Nsg9
g10
(S'\x07\x90\x07\x16'
p2693
tp2694
Rp2695
sba(iexample
Example
p2696
(dp2697
g5
Nsg6
S'2074 01 02 non-US'
p2698
sg8
Nsg9
g10
(S'\x08\x1a\x01\x02'
p2699
tp2700
Rp2701
sba(iexample
Example
p2702
(dp2703
g5
Nsg6
S'August the 25th 1947 US'
p2704
sg8
Nsg9
g10
(S'\x07\x9b\x08\x19'
p2705
tp2706
Rp2707
sba(iexample
Example
p2708
(dp2709
g5
Nsg6
S'4 Oct 1996 non-US'
p2710
sg8
Nsg9
g10
(S'\x07\xcc\n\x04'
p2711
tp2712
Rp2713
sba(iexample
Example
p2714
(dp2715
g5
Nsg6
S'1914 08 10 non-US'
p2716
sg8
Nsg9
g10
(S'\x07z\x08\n'
p2717
tp2718
Rp2719
sba(iexample
Example
p2720
(dp2721
g5
Nsg6
S'Sep the 6th 2019 US'
p2722
sg8
Nsg9
g10
(S'\x07\xe3\t\x06'
p2723
tp2724
Rp2725
sba(iexample
Example
p2726
(dp2727
g5
Nsg6
S'March 11 1957 US'
p2728
sg8
Nsg9
g10
(S'\x07\xa5\x03\x0b'
p2729
tp2730
Rp2731
sba(iexample
Example
p2732
(dp2733
g5
Nsg6
S'1st Jun 1911 non-US'
p2734
sg8
Nsg9
g10
(S'\x07w\x06\x01'
p2735
tp2736
Rp2737
sba(iexample
Example
p2738
(dp2739
g5
Nsg6
S'6 February 1949 non-US'
p2740
sg8
Nsg9
g10
(S'\x07\x9d\x02\x06'
p2741
tp2742
Rp2743
sba(iexample
Example
p2744
(dp2745
g5
Nsg6
S'2023 01 09 non-US'
p2746
sg8
Nsg9
g10
(S'\x07\xe7\x01\t'
p2747
tp2748
Rp2749
sba(iexample
Example
p2750
(dp2751
g5
Nsg6
S'Nov 6 1951 US'
p2752
sg8
Nsg9
g10
(S'\x07\x9f\x0b\x06'
p2753
tp2754
Rp2755
sba(iexample
Example
p2756
(dp2757
g5
Nsg6
S'Apr the 4th 2041 US'
p2758
sg8
Nsg9
g10
(S'\x07\xf9\x04\x04'
p2759
tp2760
Rp2761
sba(iexample
Example
p2762
(dp2763
g5
Nsg6
S'Aug the 6th 2073 US'
p2764
sg8
Nsg9
g10
(S'\x08\x19\x08\x06'
p2765
tp2766
Rp2767
sba(iexample
Example
p2768
(dp2769
g5
Nsg6
S'1947 09 04 non-US'
p2770
sg8
Nsg9
g10
(S'\x07\x9b\t\x04'
p2771
tp2772
Rp2773
sba(iexample
Example
p2774
(dp2775
g5
Nsg6
S'Mar the 4th 1992 US'
p2776
sg8
Nsg9
g10
(S'\x07\xc8\x03\x04'
p2777
tp2778
Rp2779
sba(iexample
Example
p2780
(dp2781
g5
Nsg6
S'6 June 1996 non-US'
p2782
sg8
Nsg9
g10
(S'\x07\xcc\x06\x06'
p2783
tp2784
Rp2785
sba(iexample
Example
p2786
(dp2787
g5
Nsg6
S'02 07 22 non-US'
p2788
sg8
Nsg9
g10
(S'\x07\x82\x07\x02'
p2789
tp2790
Rp2791
sba(iexample
Example
p2792
(dp2793
g5
Nsg6
S'8 9 13 non-US'
p2794
sg8
Nsg9
g10
(S'\x07y\t\x08'
p2795
tp2796
Rp2797
sba(iexample
Example
p2798
(dp2799
g5
Nsg6
S'31 12 51 non-US'
p2800
sg8
Nsg9
g10
(S'\x07\x9f\x0c\x1f'
p2801
tp2802
Rp2803
sba(iexample
Example
p2804
(dp2805
g5
Nsg6
S'01 01 2095 US'
p2806
sg8
Nsg9
g10
(S'\x08/\x01\x01'
p2807
tp2808
Rp2809
sba(iexample
Example
p2810
(dp2811
g5
Nsg6
S'1907 06 02 non-US'
p2812
sg8
Nsg9
g10
(S'\x07s\x06\x02'
p2813
tp2814
Rp2815
sba(iexample
Example
p2816
(dp2817
g5
Nsg6
S'29th Sep 1992 non-US'
p2818
sg8
Nsg9
g10
(S'\x07\xc8\t\x1d'
p2819
tp2820
Rp2821
sba(iexample
Example
p2822
(dp2823
g5
Nsg6
S'3 11 05 US'
p2824
sg8
Nsg9
g10
(S'\x07q\x03\x0b'
p2825
tp2826
Rp2827
sba(iexample
Example
p2828
(dp2829
g5
Nsg6
S'03 09 1989 non-US'
p2830
sg8
Nsg9
g10
(S'\x07\xc5\t\x03'
p2831
tp2832
Rp2833
sba(iexample
Example
p2834
(dp2835
g5
Nsg6
S'August 4 1923 US'
p2836
sg8
Nsg9
g10
(S'\x07\x83\x08\x04'
p2837
tp2838
Rp2839
sba(iexample
Example
p2840
(dp2841
g5
Nsg6
S'10 26 02 US'
p2842
sg8
Nsg9
g10
(S'\x07n\n\x1a'
p2843
tp2844
Rp2845
sba(iexample
Example
p2846
(dp2847
g5
Nsg6
S'17 11 2037 non-US'
p2848
sg8
Nsg9
g10
(S'\x07\xf5\x0b\x11'
p2849
tp2850
Rp2851
sba(iexample
Example
p2852
(dp2853
g5
Nsg6
S'31st May 1981 non-US'
p2854
sg8
Nsg9
g10
(S'\x07\xbd\x05\x1f'
p2855
tp2856
Rp2857
sba(iexample
Example
p2858
(dp2859
g5
Nsg6
S'Apr the 3rd 1956 US'
p2860
sg8
Nsg9
g10
(S'\x07\xa4\x04\x03'
p2861
tp2862
Rp2863
sba(iexample
Example
p2864
(dp2865
g5
Nsg6
S'November the 2nd 2050 US'
p2866
sg8
Nsg9
g10
(S'\x08\x02\x0b\x02'
p2867
tp2868
Rp2869
sba(iexample
Example
p2870
(dp2871
g5
Nsg6
S'1st Mar 2090 non-US'
p2872
sg8
Nsg9
g10
(S'\x08*\x03\x01'
p2873
tp2874
Rp2875
sba(iexample
Example
p2876
(dp2877
g5
Nsg6
S'2040 05 04 non-US'
p2878
sg8
Nsg9
g10
(S'\x07\xf8\x05\x04'
p2879
tp2880
Rp2881
sba(iexample
Example
p2882
(dp2883
g5
Nsg6
S'Feb 8 1922 US'
p2884
sg8
Nsg9
g10
(S'\x07\x82\x02\x08'
p2885
tp2886
Rp2887
sba(iexample
Example
p2888
(dp2889
g5
Nsg6
S'Jan 24 2057 US'
p2890
sg8
Nsg9
g10
(S'\x08\t\x01\x18'
p2891
tp2892
Rp2893
sba(iexample
Example
p2894
(dp2895
g5
Nsg6
S'01 03 16 non-US'
p2896
sg8
Nsg9
g10
(S'\x07|\x03\x01'
p2897
tp2898
Rp2899
sba(iexample
Example
p2900
(dp2901
g5
Nsg6
S'1957 09 02 non-US'
p2902
sg8
Nsg9
g10
(S'\x07\xa5\t\x02'
p2903
tp2904
Rp2905
sba(iexample
Example
p2906
(dp2907
g5
Nsg6
S'15th Sep 1955 non-US'
p2908
sg8
Nsg9
g10
(S'\x07\xa3\t\x0f'
p2909
tp2910
Rp2911
sba(iexample
Example
p2912
(dp2913
g5
Nsg6
S'25th July 2099 non-US'
p2914
sg8
Nsg9
g10
(S'\x083\x07\x19'
p2915
tp2916
Rp2917
sba(iexample
Example
p2918
(dp2919
g5
Nsg6
S'July 7 2036 US'
p2920
sg8
Nsg9
g10
(S'\x07\xf4\x07\x07'
p2921
tp2922
Rp2923
sba(iexample
Example
p2924
(dp2925
g5
Nsg6
S'September 15 1985 US'
p2926
sg8
Nsg9
g10
(S'\x07\xc1\t\x0f'
p2927
tp2928
Rp2929
sba(iexample
Example
p2930
(dp2931
g5
Nsg6
S'2039 09 09 non-US'
p2932
sg8
Nsg9
g10
(S'\x07\xf7\t\t'
p2933
tp2934
Rp2935
sba(iexample
Example
p2936
(dp2937
g5
Nsg6
S'8 1 02 non-US'
p2938
sg8
Nsg9
g10
(S'\x07n\x01\x08'
p2939
tp2940
Rp2941
sba(iexample
Example
p2942
(dp2943
g5
Nsg6
S'November the 29th 1958 US'
p2944
sg8
Nsg9
g10
(S'\x07\xa6\x0b\x1d'
p2945
tp2946
Rp2947
sba(iexample
Example
p2948
(dp2949
g5
Nsg6
S'4 12 73 US'
p2950
sg8
Nsg9
g10
(S'\x07\xb5\x04\x0c'
p2951
tp2952
Rp2953
sba(iexample
Example
p2954
(dp2955
g5
Nsg6
S'May the 25th 2030 US'
p2956
sg8
Nsg9
g10
(S'\x07\xee\x05\x19'
p2957
tp2958
Rp2959
sba(iexample
Example
p2960
(dp2961
g5
Nsg6
S'06 09 82 US'
p2962
sg8
Nsg9
g10
(S'\x07\xbe\x06\t'
p2963
tp2964
Rp2965
sba(iexample
Example
p2966
(dp2967
g5
Nsg6
S'8 24 33 US'
p2968
sg8
Nsg9
g10
(S'\x07\x8d\x08\x18'
p2969
tp2970
Rp2971
sba(iexample
Example
p2972
(dp2973
g5
Nsg6
S'5th May 2000 non-US'
p2974
sg8
Nsg9
g10
(S'\x07\xd0\x05\x05'
p2975
tp2976
Rp2977
sba(iexample
Example
p2978
(dp2979
g5
Nsg6
S'4 28 44 US'
p2980
sg8
Nsg9
g10
(S'\x07\x98\x04\x1c'
p2981
tp2982
Rp2983
sba(iexample
Example
p2984
(dp2985
g5
Nsg6
S'07 01 14 US'
p2986
sg8
Nsg9
g10
(S'\x07z\x07\x01'
p2987
tp2988
Rp2989
sba(iexample
Example
p2990
(dp2991
g5
Nsg6
S'6th Apr 1945 non-US'
p2992
sg8
Nsg9
g10
(S'\x07\x99\x04\x06'
p2993
tp2994
Rp2995
sba(iexample
Example
p2996
(dp2997
g5
Nsg6
S'25 August 2093 non-US'
p2998
sg8
Nsg9
g10
(S'\x08-\x08\x19'
p2999
tp3000
Rp3001
sba(iexample
Example
p3002
(dp3003
g5
Nsg6
S'10 Sep 1925 non-US'
p3004
sg8
Nsg9
g10
(S'\x07\x85\t\n'
p3005
tp3006
Rp3007
sba(iexample
Example
p3008
(dp3009
g5
Nsg6
S'1958 08 02 non-US'
p3010
sg8
Nsg9
g10
(S'\x07\xa6\x08\x02'
p3011
tp3012
Rp3013
sba(iexample
Example
p3014
(dp3015
g5
Nsg6
S'11 Apr 1903 non-US'
p3016
sg8
Nsg9
g10
(S'\x07o\x04\x0b'
p3017
tp3018
Rp3019
sba(iexample
Example
p3020
(dp3021
g5
Nsg6
S'Sep 12 2061 US'
p3022
sg8
Nsg9
g10
(S'\x08\r\t\x0c'
p3023
tp3024
Rp3025
sba(iexample
Example
p3026
(dp3027
g5
Nsg6
S'August 6 2001 US'
p3028
sg8
Nsg9
g10
(S'\x07\xd1\x08\x06'
p3029
tp3030
Rp3031
sba(iexample
Example
p3032
(dp3033
g5
Nsg6
S'1979 09 01 non-US'
p3034
sg8
Nsg9
g10
(S'\x07\xbb\t\x01'
p3035
tp3036
Rp3037
sba(iexample
Example
p3038
(dp3039
g5
Nsg6
S'20 Aug 1910 non-US'
p3040
sg8
Nsg9
g10
(S'\x07v\x08\x14'
p3041
tp3042
Rp3043
sba(iexample
Example
p3044
(dp3045
g5
Nsg6
S'November 7 2078 US'
p3046
sg8
Nsg9
g10
(S'\x08\x1e\x0b\x07'
p3047
tp3048
Rp3049
sba(iexample
Example
p3050
(dp3051
g5
Nsg6
S'09 02 2024 US'
p3052
sg8
Nsg9
g10
(S'\x07\xe8\t\x02'
p3053
tp3054
Rp3055
sba(iexample
Example
p3056
(dp3057
g5
Nsg6
S'5 June 1941 non-US'
p3058
sg8
Nsg9
g10
(S'\x07\x95\x06\x05'
p3059
tp3060
Rp3061
sba(iexample
Example
p3062
(dp3063
g5
Nsg6
S'25 Aug 2064 non-US'
p3064
sg8
Nsg9
g10
(S'\x08\x10\x08\x19'
p3065
tp3066
Rp3067
sba(iexample
Example
p3068
(dp3069
g5
Nsg6
S'20 Jan 1922 non-US'
p3070
sg8
Nsg9
g10
(S'\x07\x82\x01\x14'
p3071
tp3072
Rp3073
sba(iexample
Example
p3074
(dp3075
g5
Nsg6
S'17 January 1975 non-US'
p3076
sg8
Nsg9
g10
(S'\x07\xb7\x01\x11'
p3077
tp3078
Rp3079
sba(iexample
Example
p3080
(dp3081
g5
Nsg6
S'06 08 99 non-US'
p3082
sg8
Nsg9
g10
(S'\x07\xcf\x08\x06'
p3083
tp3084
Rp3085
sba(iexample
Example
p3086
(dp3087
g5
Nsg6
S'06 06 2021 non-US'
p3088
sg8
Nsg9
g10
(S'\x07\xe5\x06\x06'
p3089
tp3090
Rp3091
sba(iexample
Example
p3092
(dp3093
g5
Nsg6
S'2065 09 04 non-US'
p3094
sg8
Nsg9
g10
(S'\x08\x11\t\x04'
p3095
tp3096
Rp3097
sba(iexample
Example
p3098
(dp3099
g5
Nsg6
S'Apr 26 1981 US'
p3100
sg8
Nsg9
g10
(S'\x07\xbd\x04\x1a'
p3101
tp3102
Rp3103
sba(iexample
Example
p3104
(dp3105
g5
Nsg6
S'February the 7th 2036 US'
p3106
sg8
Nsg9
g10
(S'\x07\xf4\x02\x07'
p3107
tp3108
Rp3109
sba(iexample
Example
p3110
(dp3111
g5
Nsg6
S'1916 06 05 non-US'
p3112
sg8
Nsg9
g10
(S'\x07|\x06\x05'
p3113
tp3114
Rp3115
sba(iexample
Example
p3116
(dp3117
g5
Nsg6
S'25th March 1960 non-US'
p3118
sg8
Nsg9
g10
(S'\x07\xa8\x03\x19'
p3119
tp3120
Rp3121
sba(iexample
Example
p3122
(dp3123
g5
Nsg6
S'05 01 2006 US'
p3124
sg8
Nsg9
g10
(S'\x07\xd6\x05\x01'
p3125
tp3126
Rp3127
sba(iexample
Example
p3128
(dp3129
g5
Nsg6
S'14 10 1965 non-US'
p3130
sg8
Nsg9
g10
(S'\x07\xad\n\x0e'
p3131
tp3132
Rp3133
sba(iexample
Example
p3134
(dp3135
g5
Nsg6
S'May 13 2012 US'
p3136
sg8
Nsg9
g10
(S'\x07\xdc\x05\r'
p3137
tp3138
Rp3139
sba(iexample
Example
p3140
(dp3141
g5
Nsg6
S'9 Sep 1955 non-US'
p3142
sg8
Nsg9
g10
(S'\x07\xa3\t\t'
p3143
tp3144
Rp3145
sba(iexample
Example
p3146
(dp3147
g5
Nsg6
S'6 3 2004 non-US'
p3148
sg8
Nsg9
g10
(S'\x07\xd4\x03\x06'
p3149
tp3150
Rp3151
sba(iexample
Example
p3152
(dp3153
g5
Nsg6
S'29 October 1972 non-US'
p3154
sg8
Nsg9
g10
(S'\x07\xb4\n\x1d'
p3155
tp3156
Rp3157
sba(iexample
Example
p3158
(dp3159
g5
Nsg6
S'03 01 1943 US'
p3160
sg8
Nsg9
g10
(S'\x07\x97\x03\x01'
p3161
tp3162
Rp3163
sba(iexample
Example
p3164
(dp3165
g5
Nsg6
S'2036 09 06 US'
p3166
sg8
Nsg9
g10
(S'\x07\xf4\t\x06'
p3167
tp3168
Rp3169
sba(iexample
Example
p3170
(dp3171
g5
Nsg6
S'5 Jul 2051 non-US'
p3172
sg8
Nsg9
g10
(S'\x08\x03\x07\x05'
p3173
tp3174
Rp3175
sba(iexample
Example
p3176
(dp3177
g5
Nsg6
S'2nd September 1975 non-US'
p3178
sg8
Nsg9
g10
(S'\x07\xb7\t\x02'
p3179
tp3180
Rp3181
sba(iexample
Example
p3182
(dp3183
g5
Nsg6
S'1955 05 05 non-US'
p3184
sg8
Nsg9
g10
(S'\x07\xa3\x05\x05'
p3185
tp3186
Rp3187
sba(iexample
Example
p3188
(dp3189
g5
Nsg6
S'2031 01 04 non-US'
p3190
sg8
Nsg9
g10
(S'\x07\xef\x01\x04'
p3191
tp3192
Rp3193
sba(iexample
Example
p3194
(dp3195
g5
Nsg6
S'2 2 52 non-US'
p3196
sg8
Nsg9
g10
(S'\x07\xa0\x02\x02'
p3197
tp3198
Rp3199
sba(iexample
Example
p3200
(dp3201
g5
Nsg6
S'Jul the 22nd 1925 US'
p3202
sg8
Nsg9
g10
(S'\x07\x85\x07\x16'
p3203
tp3204
Rp3205
sba(iexample
Example
p3206
(dp3207
g5
Nsg6
S'23 Sep 1986 non-US'
p3208
sg8
Nsg9
g10
(S'\x07\xc2\t\x17'
p3209
tp3210
Rp3211
sba(iexample
Example
p3212
(dp3213
g5
Nsg6
S'7 27 44 US'
p3214
sg8
Nsg9
g10
(S'\x07\x98\x07\x1b'
p3215
tp3216
Rp3217
sba(iexample
Example
p3218
(dp3219
g5
Nsg6
S'06 02 85 US'
p3220
sg8
Nsg9
g10
(S'\x07\xc1\x06\x02'
p3221
tp3222
Rp3223
sba(iexample
Example
p3224
(dp3225
g5
Nsg6
S'01 03 2002 US'
p3226
sg8
Nsg9
g10
(S'\x07\xd2\x01\x03'
p3227
tp3228
Rp3229
sba(iexample
Example
p3230
(dp3231
g5
Nsg6
S'2006 01 02 non-US'
p3232
sg8
Nsg9
g10
(S'\x07\xd6\x01\x02'
p3233
tp3234
Rp3235
sba(iexample
Example
p3236
(dp3237
g5
Nsg6
S'2 September 2014 non-US'
p3238
sg8
Nsg9
g10
(S'\x07\xde\t\x02'
p3239
tp3240
Rp3241
sba(iexample
Example
p3242
(dp3243
g5
Nsg6
S'29th Jul 2024 non-US'
p3244
sg8
Nsg9
g10
(S'\x07\xe8\x07\x1d'
p3245
tp3246
Rp3247
sba(iexample
Example
p3248
(dp3249
g5
Nsg6
S'June the 28th 2087 US'
p3250
sg8
Nsg9
g10
(S"\x08'\x06\x1c"
p3251
tp3252
Rp3253
sba(iexample
Example
p3254
(dp3255
g5
Nsg6
S'19 June 1931 non-US'
p3256
sg8
Nsg9
g10
(S'\x07\x8b\x06\x13'
p3257
tp3258
Rp3259
sba(iexample
Example
p3260
(dp3261
g5
Nsg6
S'10 May 1980 non-US'
p3262
sg8
Nsg9
g10
(S'\x07\xbc\x05\n'
p3263
tp3264
Rp3265
sba(iexample
Example
p3266
(dp3267
g5
Nsg6
S'02 04 2013 US'
p3268
sg8
Nsg9
g10
(S'\x07\xdd\x02\x04'
p3269
tp3270
Rp3271
sba(iexample
Example
p3272
(dp3273
g5
Nsg6
S'May the 22nd 2006 US'
p3274
sg8
Nsg9
g10
(S'\x07\xd6\x05\x16'
p3275
tp3276
Rp3277
sba(iexample
Example
p3278
(dp3279
g5
Nsg6
S'August 5 2072 US'
p3280
sg8
Nsg9
g10
(S'\x08\x18\x08\x05'
p3281
tp3282
Rp3283
sba(iexample
Example
p3284
(dp3285
g5
Nsg6
S'3 March 2083 non-US'
p3286
sg8
Nsg9
g10
(S'\x08#\x03\x03'
p3287
tp3288
Rp3289
sba(iexample
Example
p3290
(dp3291
g5
Nsg6
S'9th Jan 1918 non-US'
p3292
sg8
Nsg9
g10
(S'\x07~\x01\t'
p3293
tp3294
Rp3295
sba(iexample
Example
p3296
(dp3297
g5
Nsg6
S'Feb the 19th 1977 US'
p3298
sg8
Nsg9
g10
(S'\x07\xb9\x02\x13'
p3299
tp3300
Rp3301
sba(iexample
Example
p3302
(dp3303
g5
Nsg6
S'22nd Apr 2044 non-US'
p3304
sg8
Nsg9
g10
(S'\x07\xfc\x04\x16'
p3305
tp3306
Rp3307
sba(iexample
Example
p3308
(dp3309
g5
Nsg6
S'May the 6th 1918 US'
p3310
sg8
Nsg9
g10
(S'\x07~\x05\x06'
p3311
tp3312
Rp3313
sba(iexample
Example
p3314
(dp3315
g5
Nsg6
S'11th Jan 1987 non-US'
p3316
sg8
Nsg9
g10
(S'\x07\xc3\x01\x0b'
p3317
tp3318
Rp3319
sba(iexample
Example
p3320
(dp3321
g5
Nsg6
S'Feb the 1st 2060 US'
p3322
sg8
Nsg9
g10
(S'\x08\x0c\x02\x01'
p3323
tp3324
Rp3325
sba(iexample
Example
p3326
(dp3327
g5
Nsg6
S'Feb the 11th 1900 US'
p3328
sg8
Nsg9
g10
(S'\x07l\x02\x0b'
p3329
tp3330
Rp3331
sba(iexample
Example
p3332
(dp3333
g5
Nsg6
S'4 11 86 US'
p3334
sg8
Nsg9
g10
(S'\x07\xc2\x04\x0b'
p3335
tp3336
Rp3337
sba(iexample
Example
p3338
(dp3339
g5
Nsg6
S'March the 1st 1968 US'
p3340
sg8
Nsg9
g10
(S'\x07\xb0\x03\x01'
p3341
tp3342
Rp3343
sba(iexample
Example
p3344
(dp3345
g5
Nsg6
S'22 September 2040 non-US'
p3346
sg8
Nsg9
g10
(S'\x07\xf8\t\x16'
p3347
tp3348
Rp3349
sba(iexample
Example
p3350
(dp3351
g5
Nsg6
S'March the 21st 2096 US'
p3352
sg8
Nsg9
g10
(S'\x080\x03\x15'
p3353
tp3354
Rp3355
sba(iexample
Example
p3356
(dp3357
g5
Nsg6
S'30 Jan 2031 non-US'
p3358
sg8
Nsg9
g10
(S'\x07\xef\x01\x1e'
p3359
tp3360
Rp3361
sba(iexample
Example
p3362
(dp3363
g5
Nsg6
S'3 February 2074 non-US'
p3364
sg8
Nsg9
g10
(S'\x08\x1a\x02\x03'
p3365
tp3366
Rp3367
sba(iexample
Example
p3368
(dp3369
g5
Nsg6
S'06 04 2069 non-US'
p3370
sg8
Nsg9
g10
(S'\x08\x15\x04\x06'
p3371
tp3372
Rp3373
sba(iexample
Example
p3374
(dp3375
g5
Nsg6
S'06 04 2067 US'
p3376
sg8
Nsg9
g10
(S'\x08\x13\x06\x04'
p3377
tp3378
Rp3379
sba(iexample
Example
p3380
(dp3381
g5
Nsg6
S'18 5 1909 non-US'
p3382
sg8
Nsg9
g10
(S'\x07u\x05\x12'
p3383
tp3384
Rp3385
sba(iexample
Example
p3386
(dp3387
g5
Nsg6
S'06 04 2061 US'
p3388
sg8
Nsg9
g10
(S'\x08\r\x06\x04'
p3389
tp3390
Rp3391
sba(iexample
Example
p3392
(dp3393
g5
Nsg6
S'06 07 1987 non-US'
p3394
sg8
Nsg9
g10
(S'\x07\xc3\x07\x06'
p3395
tp3396
Rp3397
sba(iexample
Example
p3398
(dp3399
g5
Nsg6
S'06 07 1986 non-US'
p3400
sg8
Nsg9
g10
(S'\x07\xc2\x07\x06'
p3401
tp3402
Rp3403
sba(iexample
Example
p3404
(dp3405
g5
Nsg6
S'9th March 2002 non-US'
p3406
sg8
Nsg9
g10
(S'\x07\xd2\x03\t'
p3407
tp3408
Rp3409
sba(iexample
Example
p3410
(dp3411
g5
Nsg6
S'August 19 2055 US'
p3412
sg8
Nsg9
g10
(S'\x08\x07\x08\x13'
p3413
tp3414
Rp3415
sba(iexample
Example
p3416
(dp3417
g5
Nsg6
S'15th May 2036 non-US'
p3418
sg8
Nsg9
g10
(S'\x07\xf4\x05\x0f'
p3419
tp3420
Rp3421
sba(iexample
Example
p3422
(dp3423
g5
Nsg6
S'Oct the 10th 1901 US'
p3424
sg8
Nsg9
g10
(S'\x07m\n\n'
p3425
tp3426
Rp3427
sba(iexample
Example
p3428
(dp3429
g5
Nsg6
S'6 3 1915 US'
p3430
sg8
Nsg9
g10
(S'\x07{\x06\x03'
p3431
tp3432
Rp3433
sba(iexample
Example
p3434
(dp3435
g5
Nsg6
S'May 15 2086 US'
p3436
sg8
Nsg9
g10
(S'\x08&\x05\x0f'
p3437
tp3438
Rp3439
sba(iexample
Example
p3440
(dp3441
g5
Nsg6
S'February 13 1942 US'
p3442
sg8
Nsg9
g10
(S'\x07\x96\x02\r'
p3443
tp3444
Rp3445
sba(iexample
Example
p3446
(dp3447
g5
Nsg6
S'Jun 16 1910 US'
p3448
sg8
Nsg9
g10
(S'\x07v\x06\x10'
p3449
tp3450
Rp3451
sba(iexample
Example
p3452
(dp3453
g5
Nsg6
S'06 05 2059 US'
p3454
sg8
Nsg9
g10
(S'\x08\x0b\x06\x05'
p3455
tp3456
Rp3457
sba(iexample
Example
p3458
(dp3459
g5
Nsg6
S'04 07 35 non-US'
p3460
sg8
Nsg9
g10
(S'\x07\x8f\x07\x04'
p3461
tp3462
Rp3463
sba(iexample
Example
p3464
(dp3465
g5
Nsg6
S'04 07 36 non-US'
p3466
sg8
Nsg9
g10
(S'\x07\x90\x07\x04'
p3467
tp3468
Rp3469
sba(iexample
Example
p3470
(dp3471
g5
Nsg6
S'Feb the 25th 2034 US'
p3472
sg8
Nsg9
g10
(S'\x07\xf2\x02\x19'
p3473
tp3474
Rp3475
sba(iexample
Example
p3476
(dp3477
g5
Nsg6
S'17 3 91 non-US'
p3478
sg8
Nsg9
g10
(S'\x07\xc7\x03\x11'
p3479
tp3480
Rp3481
sba(iexample
Example
p3482
(dp3483
g5
Nsg6
S'1986 03 08 US'
p3484
sg8
Nsg9
g10
(S'\x07\xc2\x03\x08'
p3485
tp3486
Rp3487
sba(iexample
Example
p3488
(dp3489
g5
Nsg6
S'11th June 2086 non-US'
p3490
sg8
Nsg9
g10
(S'\x08&\x06\x0b'
p3491
tp3492
Rp3493
sba(iexample
Example
p3494
(dp3495
g5
Nsg6
S'8 10 2088 non-US'
p3496
sg8
Nsg9
g10
(S'\x08(\n\x08'
p3497
tp3498
Rp3499
sba(iexample
Example
p3500
(dp3501
g5
Nsg6
S'July the 18th 2051 US'
p3502
sg8
Nsg9
g10
(S'\x08\x03\x07\x12'
p3503
tp3504
Rp3505
sba(iexample
Example
p3506
(dp3507
g5
Nsg6
S'28 10 40 non-US'
p3508
sg8
Nsg9
g10
(S'\x07\x94\n\x1c'
p3509
tp3510
Rp3511
sba(iexample
Example
p3512
(dp3513
g5
Nsg6
S'Dec the 25th 1929 US'
p3514
sg8
Nsg9
g10
(S'\x07\x89\x0c\x19'
p3515
tp3516
Rp3517
sba(iexample
Example
p3518
(dp3519
g5
Nsg6
S'03 01 39 US'
p3520
sg8
Nsg9
g10
(S'\x07\x93\x03\x01'
p3521
tp3522
Rp3523
sba(iexample
Example
p3524
(dp3525
g5
Nsg6
S'06 08 1938 non-US'
p3526
sg8
Nsg9
g10
(S'\x07\x92\x08\x06'
p3527
tp3528
Rp3529
sba(iexample
Example
p3530
(dp3531
g5
Nsg6
S'1901 08 07 non-US'
p3532
sg8
Nsg9
g10
(S'\x07m\x08\x07'
p3533
tp3534
Rp3535
sba(iexample
Example
p3536
(dp3537
g5
Nsg6
S'1 Mar 1931 non-US'
p3538
sg8
Nsg9
g10
(S'\x07\x8b\x03\x01'
p3539
tp3540
Rp3541
sba(iexample
Example
p3542
(dp3543
g5
Nsg6
S'7 21 99 US'
p3544
sg8
Nsg9
g10
(S'\x07\xcf\x07\x15'
p3545
tp3546
Rp3547
sba(iexample
Example
p3548
(dp3549
g5
Nsg6
S'08 04 18 US'
p3550
sg8
Nsg9
g10
(S'\x07~\x08\x04'
p3551
tp3552
Rp3553
sba(iexample
Example
p3554
(dp3555
g5
Nsg6
S'Apr 24 1979 US'
p3556
sg8
Nsg9
g10
(S'\x07\xbb\x04\x18'
p3557
tp3558
Rp3559
sba(iexample
Example
p3560
(dp3561
g5
Nsg6
S'08 04 15 non-US'
p3562
sg8
Nsg9
g10
(S'\x07{\x04\x08'
p3563
tp3564
Rp3565
sba(iexample
Example
p3566
(dp3567
g5
Nsg6
S'3 10 1926 non-US'
p3568
sg8
Nsg9
g10
(S'\x07\x86\n\x03'
p3569
tp3570
Rp3571
sba(iexample
Example
p3572
(dp3573
g5
Nsg6
S'12 Jul 1938 non-US'
p3574
sg8
Nsg9
g10
(S'\x07\x92\x07\x0c'
p3575
tp3576
Rp3577
sba(iexample
Example
p3578
(dp3579
g5
Nsg6
S'November 21 2071 US'
p3580
sg8
Nsg9
g10
(S'\x08\x17\x0b\x15'
p3581
tp3582
Rp3583
sba(iexample
Example
p3584
(dp3585
g5
Nsg6
S'16th Sep 1927 non-US'
p3586
sg8
Nsg9
g10
(S'\x07\x87\t\x10'
p3587
tp3588
Rp3589
sba(iexample
Example
p3590
(dp3591
g5
Nsg6
S'6th Aug 2052 non-US'
p3592
sg8
Nsg9
g10
(S'\x08\x04\x08\x06'
p3593
tp3594
Rp3595
sba(iexample
Example
p3596
(dp3597
g5
Nsg6
S'12 27 53 US'
p3598
sg8
Nsg9
g10
(S'\x07\xa1\x0c\x1b'
p3599
tp3600
Rp3601
sba(iexample
Example
p3602
(dp3603
g5
Nsg6
S'06 02 2046 non-US'
p3604
sg8
Nsg9
g10
(S'\x07\xfe\x02\x06'
p3605
tp3606
Rp3607
sba(iexample
Example
p3608
(dp3609
g5
Nsg6
S'11th March 1940 non-US'
p3610
sg8
Nsg9
g10
(S'\x07\x94\x03\x0b'
p3611
tp3612
Rp3613
sba(iexample
Example
p3614
(dp3615
g5
Nsg6
S'3rd Dec 2054 non-US'
p3616
sg8
Nsg9
g10
(S'\x08\x06\x0c\x03'
p3617
tp3618
Rp3619
sba(iexample
Example
p3620
(dp3621
g5
Nsg6
S'22 1 1959 non-US'
p3622
sg8
Nsg9
g10
(S'\x07\xa7\x01\x16'
p3623
tp3624
Rp3625
sba(iexample
Example
p3626
(dp3627
g5
Nsg6
S'2092 03 05 non-US'
p3628
sg8
Nsg9
g10
(S'\x08,\x03\x05'
p3629
tp3630
Rp3631
sba(iexample
Example
p3632
(dp3633
g5
Nsg6
S'11 17 93 US'
p3634
sg8
Nsg9
g10
(S'\x07\xc9\x0b\x11'
p3635
tp3636
Rp3637
sba(iexample
Example
p3638
(dp3639
g5
Nsg6
S'1906 03 01 US'
p3640
sg8
Nsg9
g10
(S'\x07r\x03\x01'
p3641
tp3642
Rp3643
sba(iexample
Example
p3644
(dp3645
g5
Nsg6
S'12 June 1997 non-US'
p3646
sg8
Nsg9
g10
(S'\x07\xcd\x06\x0c'
p3647
tp3648
Rp3649
sba(iexample
Example
p3650
(dp3651
g5
Nsg6
S'26 12 20 non-US'
p3652
sg8
Nsg9
g10
(S'\x07\x80\x0c\x1a'
p3653
tp3654
Rp3655
sba(iexample
Example
p3656
(dp3657
g5
Nsg6
S'1933 07 03 US'
p3658
sg8
Nsg9
g10
(S'\x07\x8d\x07\x03'
p3659
tp3660
Rp3661
sba(iexample
Example
p3662
(dp3663
g5
Nsg6
S'24 Oct 1993 non-US'
p3664
sg8
Nsg9
g10
(S'\x07\xc9\n\x18'
p3665
tp3666
Rp3667
sba(iexample
Example
p3668
(dp3669
g5
Nsg6
S'April 3 2039 US'
p3670
sg8
Nsg9
g10
(S'\x07\xf7\x04\x03'
p3671
tp3672
Rp3673
sba(iexample
Example
p3674
(dp3675
g5
Nsg6
S'2031 02 07 non-US'
p3676
sg8
Nsg9
g10
(S'\x07\xef\x02\x07'
p3677
tp3678
Rp3679
sba(iexample
Example
p3680
(dp3681
g5
Nsg6
S'Sep the 16th 2056 US'
p3682
sg8
Nsg9
g10
(S'\x08\x08\t\x10'
p3683
tp3684
Rp3685
sba(iexample
Example
p3686
(dp3687
g5
Nsg6
S'23 June 1978 non-US'
p3688
sg8
Nsg9
g10
(S'\x07\xba\x06\x17'
p3689
tp3690
Rp3691
sba(iexample
Example
p3692
(dp3693
g5
Nsg6
S'5 6 30 US'
p3694
sg8
Nsg9
g10
(S'\x07\x8a\x05\x06'
p3695
tp3696
Rp3697
sba(iexample
Example
p3698
(dp3699
g5
Nsg6
S'Nov the 7th 1925 US'
p3700
sg8
Nsg9
g10
(S'\x07\x85\x0b\x07'
p3701
tp3702
Rp3703
sba(iexample
Example
p3704
(dp3705
g5
Nsg6
S'June the 11th 2015 US'
p3706
sg8
Nsg9
g10
(S'\x07\xdf\x06\x0b'
p3707
tp3708
Rp3709
sba(iexample
Example
p3710
(dp3711
g5
Nsg6
S'21 Dec 1905 non-US'
p3712
sg8
Nsg9
g10
(S'\x07q\x0c\x15'
p3713
tp3714
Rp3715
sba(iexample
Example
p3716
(dp3717
g5
Nsg6
S'03 05 25 non-US'
p3718
sg8
Nsg9
g10
(S'\x07\x85\x05\x03'
p3719
tp3720
Rp3721
sba(iexample
Example
p3722
(dp3723
g5
Nsg6
S'2071 02 03 non-US'
p3724
sg8
Nsg9
g10
(S'\x08\x17\x02\x03'
p3725
tp3726
Rp3727
sba(iexample
Example
p3728
(dp3729
g5
Nsg6
S'4th May 1980 non-US'
p3730
sg8
Nsg9
g10
(S'\x07\xbc\x05\x04'
p3731
tp3732
Rp3733
sba(iexample
Example
p3734
(dp3735
g5
Nsg6
S'20th May 1910 non-US'
p3736
sg8
Nsg9
g10
(S'\x07v\x05\x14'
p3737
tp3738
Rp3739
sba(iexample
Example
p3740
(dp3741
g5
Nsg6
S'25 October 2080 non-US'
p3742
sg8
Nsg9
g10
(S'\x08 \n\x19'
p3743
tp3744
Rp3745
sba(iexample
Example
p3746
(dp3747
g5
Nsg6
S'03 07 90 US'
p3748
sg8
Nsg9
g10
(S'\x07\xc6\x03\x07'
p3749
tp3750
Rp3751
sba(iexample
Example
p3752
(dp3753
g5
Nsg6
S'14 Jul 1910 non-US'
p3754
sg8
Nsg9
g10
(S'\x07v\x07\x0e'
p3755
tp3756
Rp3757
sba(iexample
Example
p3758
(dp3759
g5
Nsg6
S'2nd June 1900 non-US'
p3760
sg8
Nsg9
g10
(S'\x07l\x06\x02'
p3761
tp3762
Rp3763
sba(iexample
Example
p3764
(dp3765
g5
Nsg6
S'03 07 99 US'
p3766
sg8
Nsg9
g10
(S'\x07\xcf\x03\x07'
p3767
tp3768
Rp3769
sba(iexample
Example
p3770
(dp3771
g5
Nsg6
S'14 Jul 1917 non-US'
p3772
sg8
Nsg9
g10
(S'\x07}\x07\x0e'
p3773
tp3774
Rp3775
sba(iexample
Example
p3776
(dp3777
g5
Nsg6
S'October the 10th 1912 US'
p3778
sg8
Nsg9
g10
(S'\x07x\n\n'
p3779
tp3780
Rp3781
sba(iexample
Example
p3782
(dp3783
g5
Nsg6
S'05 02 18 US'
p3784
sg8
Nsg9
g10
(S'\x07~\x05\x02'
p3785
tp3786
Rp3787
sba(iexample
Example
p3788
(dp3789
g5
Nsg6
S'1 14 83 US'
p3790
sg8
Nsg9
g10
(S'\x07\xbf\x01\x0e'
p3791
tp3792
Rp3793
sba(iexample
Example
p3794
(dp3795
g5
Nsg6
S'July 16 2068 US'
p3796
sg8
Nsg9
g10
(S'\x08\x14\x07\x10'
p3797
tp3798
Rp3799
sba(iexample
Example
p3800
(dp3801
g5
Nsg6
S'14 May 2036 non-US'
p3802
sg8
Nsg9
g10
(S'\x07\xf4\x05\x0e'
p3803
tp3804
Rp3805
sba(iexample
Example
p3806
(dp3807
g5
Nsg6
S'01 04 2097 non-US'
p3808
sg8
Nsg9
g10
(S'\x081\x04\x01'
p3809
tp3810
Rp3811
sba(iexample
Example
p3812
(dp3813
g5
Nsg6
S'17th October 1949 non-US'
p3814
sg8
Nsg9
g10
(S'\x07\x9d\n\x11'
p3815
tp3816
Rp3817
sba(iexample
Example
p3818
(dp3819
g5
Nsg6
S'1955 09 06 non-US'
p3820
sg8
Nsg9
g10
(S'\x07\xa3\t\x06'
p3821
tp3822
Rp3823
sba(iexample
Example
p3824
(dp3825
g5
Nsg6
S'November 2 1996 US'
p3826
sg8
Nsg9
g10
(S'\x07\xcc\x0b\x02'
p3827
tp3828
Rp3829
sba(iexample
Example
p3830
(dp3831
g5
Nsg6
S'1 1 47 non-US'
p3832
sg8
Nsg9
g10
(S'\x07\x9b\x01\x01'
p3833
tp3834
Rp3835
sba(iexample
Example
p3836
(dp3837
g5
Nsg6
S'5 25 2079 US'
p3838
sg8
Nsg9
g10
(S'\x08\x1f\x05\x19'
p3839
tp3840
Rp3841
sba(iexample
Example
p3842
(dp3843
g5
Nsg6
S'03 06 1946 US'
p3844
sg8
Nsg9
g10
(S'\x07\x9a\x03\x06'
p3845
tp3846
Rp3847
sba(iexample
Example
p3848
(dp3849
g5
Nsg6
S'8 19 94 US'
p3850
sg8
Nsg9
g10
(S'\x07\xca\x08\x13'
p3851
tp3852
Rp3853
sba(iexample
Example
p3854
(dp3855
g5
Nsg6
S'May the 1st 2084 US'
p3856
sg8
Nsg9
g10
(S'\x08$\x05\x01'
p3857
tp3858
Rp3859
sba(iexample
Example
p3860
(dp3861
g5
Nsg6
S'March 3 1960 US'
p3862
sg8
Nsg9
g10
(S'\x07\xa8\x03\x03'
p3863
tp3864
Rp3865
sba(iexample
Example
p3866
(dp3867
g5
Nsg6
S'January 24 1982 US'
p3868
sg8
Nsg9
g10
(S'\x07\xbe\x01\x18'
p3869
tp3870
Rp3871
sba(iexample
Example
p3872
(dp3873
g5
Nsg6
S'2082 01 04 non-US'
p3874
sg8
Nsg9
g10
(S'\x08"\x01\x04'
p3875
tp3876
Rp3877
sba(iexample
Example
p3878
(dp3879
g5
Nsg6
S'3 April 1965 non-US'
p3880
sg8
Nsg9
g10
(S'\x07\xad\x04\x03'
p3881
tp3882
Rp3883
sba(iexample
Example
p3884
(dp3885
g5
Nsg6
S'2046 08 09 non-US'
p3886
sg8
Nsg9
g10
(S'\x07\xfe\x08\t'
p3887
tp3888
Rp3889
sba(iexample
Example
p3890
(dp3891
g5
Nsg6
S'06 03 1907 non-US'
p3892
sg8
Nsg9
g10
(S'\x07s\x03\x06'
p3893
tp3894
Rp3895
sba(iexample
Example
p3896
(dp3897
g5
Nsg6
S'Aug 4 2056 US'
p3898
sg8
Nsg9
g10
(S'\x08\x08\x08\x04'
p3899
tp3900
Rp3901
sba(iexample
Example
p3902
(dp3903
g5
Nsg6
S'07 01 2081 US'
p3904
sg8
Nsg9
g10
(S'\x08!\x07\x01'
p3905
tp3906
Rp3907
sba(iexample
Example
p3908
(dp3909
g5
Nsg6
S'20th Jan 1976 non-US'
p3910
sg8
Nsg9
g10
(S'\x07\xb8\x01\x14'
p3911
tp3912
Rp3913
sba(iexample
Example
p3914
(dp3915
g5
Nsg6
S'07 03 2080 non-US'
p3916
sg8
Nsg9
g10
(S'\x08 \x03\x07'
p3917
tp3918
Rp3919
sba(iexample
Example
p3920
(dp3921
g5
Nsg6
S'20 April 1962 non-US'
p3922
sg8
Nsg9
g10
(S'\x07\xaa\x04\x14'
p3923
tp3924
Rp3925
sba(iexample
Example
p3926
(dp3927
g5
Nsg6
S'26 Dec 2031 non-US'
p3928
sg8
Nsg9
g10
(S'\x07\xef\x0c\x1a'
p3929
tp3930
Rp3931
sba(iexample
Example
p3932
(dp3933
g5
Nsg6
S'09 09 22 US'
p3934
sg8
Nsg9
g10
(S'\x07\x82\t\t'
p3935
tp3936
Rp3937
sba(iexample
Example
p3938
(dp3939
g5
Nsg6
S'27 May 1968 non-US'
p3940
sg8
Nsg9
g10
(S'\x07\xb0\x05\x1b'
p3941
tp3942
Rp3943
sba(iexample
Example
p3944
(dp3945
g5
Nsg6
S'August 14 2006 US'
p3946
sg8
Nsg9
g10
(S'\x07\xd6\x08\x0e'
p3947
tp3948
Rp3949
sba(iexample
Example
p3950
(dp3951
g5
Nsg6
S'June the 8th 2072 US'
p3952
sg8
Nsg9
g10
(S'\x08\x18\x06\x08'
p3953
tp3954
Rp3955
sba(iexample
Example
p3956
(dp3957
g5
Nsg6
S'Feb 15 2018 US'
p3958
sg8
Nsg9
g10
(S'\x07\xe2\x02\x0f'
p3959
tp3960
Rp3961
sba(iexample
Example
p3962
(dp3963
g5
Nsg6
S'12 21 08 US'
p3964
sg8
Nsg9
g10
(S'\x07t\x0c\x15'
p3965
tp3966
Rp3967
sba(iexample
Example
p3968
(dp3969
g5
Nsg6
S'June 1 1932 US'
p3970
sg8
Nsg9
g10
(S'\x07\x8c\x06\x01'
p3971
tp3972
Rp3973
sba(iexample
Example
p3974
(dp3975
g5
Nsg6
S'19 3 2046 non-US'
p3976
sg8
Nsg9
g10
(S'\x07\xfe\x03\x13'
p3977
tp3978
Rp3979
sba(iexample
Example
p3980
(dp3981
g5
Nsg6
S'21 Nov 2078 non-US'
p3982
sg8
Nsg9
g10
(S'\x08\x1e\x0b\x15'
p3983
tp3984
Rp3985
sba(iexample
Example
p3986
(dp3987
g5
Nsg6
S'Jul 17 2032 US'
p3988
sg8
Nsg9
g10
(S'\x07\xf0\x07\x11'
p3989
tp3990
Rp3991
sba(iexample
Example
p3992
(dp3993
g5
Nsg6
S'14th August 2080 non-US'
p3994
sg8
Nsg9
g10
(S'\x08 \x08\x0e'
p3995
tp3996
Rp3997
sba(iexample
Example
p3998
(dp3999
g5
Nsg6
S'04 04 95 US'
p4000
sg8
Nsg9
g10
(S'\x07\xcb\x04\x04'
p4001
tp4002
Rp4003
sba(iexample
Example
p4004
(dp4005
g5
Nsg6
S'Jan 4 1988 US'
p4006
sg8
Nsg9
g10
(S'\x07\xc4\x01\x04'
p4007
tp4008
Rp4009
sba(iexample
Example
p4010
(dp4011
g5
Nsg6
S'12 1 2041 US'
p4012
sg8
Nsg9
g10
(S'\x07\xf9\x0c\x01'
p4013
tp4014
Rp4015
sba(iexample
Example
p4016
(dp4017
g5
Nsg6
S'10th May 1999 non-US'
p4018
sg8
Nsg9
g10
(S'\x07\xcf\x05\n'
p4019
tp4020
Rp4021
sba(iexample
Example
p4022
(dp4023
g5
Nsg6
S'Oct 12 2082 US'
p4024
sg8
Nsg9
g10
(S'\x08"\n\x0c'
p4025
tp4026
Rp4027
sba(iexample
Example
p4028
(dp4029
g5
Nsg6
S'15 12 1909 non-US'
p4030
sg8
Nsg9
g10
(S'\x07u\x0c\x0f'
p4031
tp4032
Rp4033
sba(iexample
Example
p4034
(dp4035
g5
Nsg6
S'Jan 18 1933 US'
p4036
sg8
Nsg9
g10
(S'\x07\x8d\x01\x12'
p4037
tp4038
Rp4039
sba(iexample
Example
p4040
(dp4041
g5
Nsg6
S'1929 08 10 non-US'
p4042
sg8
Nsg9
g10
(S'\x07\x89\x08\n'
p4043
tp4044
Rp4045
sba(iexample
Example
p4046
(dp4047
g5
Nsg6
S'December 22 2039 US'
p4048
sg8
Nsg9
g10
(S'\x07\xf7\x0c\x16'
p4049
tp4050
Rp4051
sba(iexample
Example
p4052
(dp4053
g5
Nsg6
S'29 September 2071 non-US'
p4054
sg8
Nsg9
g10
(S'\x08\x17\t\x1d'
p4055
tp4056
Rp4057
sba(iexample
Example
p4058
(dp4059
g5
Nsg6
S'27th July 1997 non-US'
p4060
sg8
Nsg9
g10
(S'\x07\xcd\x07\x1b'
p4061
tp4062
Rp4063
sba(iexample
Example
p4064
(dp4065
g5
Nsg6
S'2nd June 2026 non-US'
p4066
sg8
Nsg9
g10
(S'\x07\xea\x06\x02'
p4067
tp4068
Rp4069
sba(iexample
Example
p4070
(dp4071
g5
Nsg6
S'10 5 2065 US'
p4072
sg8
Nsg9
g10
(S'\x08\x11\n\x05'
p4073
tp4074
Rp4075
sba(iexample
Example
p4076
(dp4077
g5
Nsg6
S'14 Apr 2056 non-US'
p4078
sg8
Nsg9
g10
(S'\x08\x08\x04\x0e'
p4079
tp4080
Rp4081
sba(iexample
Example
p4082
(dp4083
g5
Nsg6
S'30 Oct 1941 non-US'
p4084
sg8
Nsg9
g10
(S'\x07\x95\n\x1e'
p4085
tp4086
Rp4087
sba(iexample
Example
p4088
(dp4089
g5
Nsg6
S'08 09 2065 non-US'
p4090
sg8
Nsg9
g10
(S'\x08\x11\t\x08'
p4091
tp4092
Rp4093
sba(iexample
Example
p4094
(dp4095
g5
Nsg6
S'July 24 1905 US'
p4096
sg8
Nsg9
g10
(S'\x07q\x07\x18'
p4097
tp4098
Rp4099
sba(iexample
Example
p4100
(dp4101
g5
Nsg6
S'September 7 1999 US'
p4102
sg8
Nsg9
g10
(S'\x07\xcf\t\x07'
p4103
tp4104
Rp4105
sba(iexample
Example
p4106
(dp4107
g5
Nsg6
S'7 26 2099 US'
p4108
sg8
Nsg9
g10
(S'\x083\x07\x1a'
p4109
tp4110
Rp4111
sba(iexample
Example
p4112
(dp4113
g5
Nsg6
S'14 12 18 non-US'
p4114
sg8
Nsg9
g10
(S'\x07~\x0c\x0e'
p4115
tp4116
Rp4117
sba(iexample
Example
p4118
(dp4119
g5
Nsg6
S'12th May 1903 non-US'
p4120
sg8
Nsg9
g10
(S'\x07o\x05\x0c'
p4121
tp4122
Rp4123
sba(iexample
Example
p4124
(dp4125
g5
Nsg6
S'November 22 2040 US'
p4126
sg8
Nsg9
g10
(S'\x07\xf8\x0b\x16'
p4127
tp4128
Rp4129
sba(iexample
Example
p4130
(dp4131
g5
Nsg6
S'1984 05 10 non-US'
p4132
sg8
Nsg9
g10
(S'\x07\xc0\x05\n'
p4133
tp4134
Rp4135
sba(iexample
Example
p4136
(dp4137
g5
Nsg6
S'25 July 2066 non-US'
p4138
sg8
Nsg9
g10
(S'\x08\x12\x07\x19'
p4139
tp4140
Rp4141
sba(iexample
Example
p4142
(dp4143
g5
Nsg6
S'01 09 1960 US'
p4144
sg8
Nsg9
g10
(S'\x07\xa8\x01\t'
p4145
tp4146
Rp4147
sba(iexample
Example
p4148
(dp4149
g5
Nsg6
S'11 18 37 US'
p4150
sg8
Nsg9
g10
(S'\x07\x91\x0b\x12'
p4151
tp4152
Rp4153
sba(iexample
Example
p4154
(dp4155
g5
Nsg6
S'4 March 2096 non-US'
p4156
sg8
Nsg9
g10
(S'\x080\x03\x04'
p4157
tp4158
Rp4159
sba(iexample
Example
p4160
(dp4161
g5
Nsg6
S'17 6 1949 non-US'
p4162
sg8
Nsg9
g10
(S'\x07\x9d\x06\x11'
p4163
tp4164
Rp4165
sba(iexample
Example
p4166
(dp4167
g5
Nsg6
S'Oct the 9th 2070 US'
p4168
sg8
Nsg9
g10
(S'\x08\x16\n\t'
p4169
tp4170
Rp4171
sba(iexample
Example
p4172
(dp4173
g5
Nsg6
S'March the 10th 1982 US'
p4174
sg8
Nsg9
g10
(S'\x07\xbe\x03\n'
p4175
tp4176
Rp4177
sba(iexample
Example
p4178
(dp4179
g5
Nsg6
S'12 6 22 non-US'
p4180
sg8
Nsg9
g10
(S'\x07\x82\x06\x0c'
p4181
tp4182
Rp4183
sba(iexample
Example
p4184
(dp4185
g5
Nsg6
S'Dec 27 2019 US'
p4186
sg8
Nsg9
g10
(S'\x07\xe3\x0c\x1b'
p4187
tp4188
Rp4189
sba(iexample
Example
p4190
(dp4191
g5
Nsg6
S'24 July 1975 non-US'
p4192
sg8
Nsg9
g10
(S'\x07\xb7\x07\x18'
p4193
tp4194
Rp4195
sba(iexample
Example
p4196
(dp4197
g5
Nsg6
S'22nd Dec 1930 non-US'
p4198
sg8
Nsg9
g10
(S'\x07\x8a\x0c\x16'
p4199
tp4200
Rp4201
sba(iexample
Example
p4202
(dp4203
g5
Nsg6
S'23 Dec 2077 non-US'
p4204
sg8
Nsg9
g10
(S'\x08\x1d\x0c\x17'
p4205
tp4206
Rp4207
sba(iexample
Example
p4208
(dp4209
g5
Nsg6
S'4th November 1928 non-US'
p4210
sg8
Nsg9
g10
(S'\x07\x88\x0b\x04'
p4211
tp4212
Rp4213
sba(iexample
Example
p4214
(dp4215
g5
Nsg6
S'3rd Mar 2061 non-US'
p4216
sg8
Nsg9
g10
(S'\x08\r\x03\x03'
p4217
tp4218
Rp4219
sba(iexample
Example
p4220
(dp4221
g5
Nsg6
S'28 November 1949 non-US'
p4222
sg8
Nsg9
g10
(S'\x07\x9d\x0b\x1c'
p4223
tp4224
Rp4225
sba(iexample
Example
p4226
(dp4227
g5
Nsg6
S'October the 12th 2022 US'
p4228
sg8
Nsg9
g10
(S'\x07\xe6\n\x0c'
p4229
tp4230
Rp4231
sba(iexample
Example
p4232
(dp4233
g5
Nsg6
S'May the 16th 2079 US'
p4234
sg8
Nsg9
g10
(S'\x08\x1f\x05\x10'
p4235
tp4236
Rp4237
sba(iexample
Example
p4238
(dp4239
g5
Nsg6
S'1995 07 04 non-US'
p4240
sg8
Nsg9
g10
(S'\x07\xcb\x07\x04'
p4241
tp4242
Rp4243
sba(iexample
Example
p4244
(dp4245
g5
Nsg6
S'5th May 2025 non-US'
p4246
sg8
Nsg9
g10
(S'\x07\xe9\x05\x05'
p4247
tp4248
Rp4249
sba(iexample
Example
p4250
(dp4251
g5
Nsg6
S'3 17 2008 US'
p4252
sg8
Nsg9
g10
(S'\x07\xd8\x03\x11'
p4253
tp4254
Rp4255
sba(iexample
Example
p4256
(dp4257
g5
Nsg6
S'12 October 2025 non-US'
p4258
sg8
Nsg9
g10
(S'\x07\xe9\n\x0c'
p4259
tp4260
Rp4261
sba(iexample
Example
p4262
(dp4263
g5
Nsg6
S'Apr 6 1977 US'
p4264
sg8
Nsg9
g10
(S'\x07\xb9\x04\x06'
p4265
tp4266
Rp4267
sba(iexample
Example
p4268
(dp4269
g5
Nsg6
S'November the 8th 1918 US'
p4270
sg8
Nsg9
g10
(S'\x07~\x0b\x08'
p4271
tp4272
Rp4273
sba(iexample
Example
p4274
(dp4275
g5
Nsg6
S'18 June 2022 non-US'
p4276
sg8
Nsg9
g10
(S'\x07\xe6\x06\x12'
p4277
tp4278
Rp4279
sba(iexample
Example
p4280
(dp4281
g5
Nsg6
S'10 16 1939 US'
p4282
sg8
Nsg9
g10
(S'\x07\x93\n\x10'
p4283
tp4284
Rp4285
sba(iexample
Example
p4286
(dp4287
g5
Nsg6
S'1900 06 04 non-US'
p4288
sg8
Nsg9
g10
(S'\x07l\x06\x04'
p4289
tp4290
Rp4291
sba(iexample
Example
p4292
(dp4293
g5
Nsg6
S'Aug 17 2059 US'
p4294
sg8
Nsg9
g10
(S'\x08\x0b\x08\x11'
p4295
tp4296
Rp4297
sba(iexample
Example
p4298
(dp4299
g5
Nsg6
S'October 22 2073 US'
p4300
sg8
Nsg9
g10
(S'\x08\x19\n\x16'
p4301
tp4302
Rp4303
sba(iexample
Example
p4304
(dp4305
g5
Nsg6
S'September 25 2099 US'
p4306
sg8
Nsg9
g10
(S'\x083\t\x19'
p4307
tp4308
Rp4309
sba(iexample
Example
p4310
(dp4311
g5
Nsg6
S'7 Jun 2042 non-US'
p4312
sg8
Nsg9
g10
(S'\x07\xfa\x06\x07'
p4313
tp4314
Rp4315
sba(iexample
Example
p4316
(dp4317
g5
Nsg6
S'22 Dec 1944 non-US'
p4318
sg8
Nsg9
g10
(S'\x07\x98\x0c\x16'
p4319
tp4320
Rp4321
sba(iexample
Example
p4322
(dp4323
g5
Nsg6
S'30 5 90 non-US'
p4324
sg8
Nsg9
g10
(S'\x07\xc6\x05\x1e'
p4325
tp4326
Rp4327
sba(iexample
Example
p4328
(dp4329
g5
Nsg6
S'10 07 35 non-US'
p4330
sg8
Nsg9
g10
(S'\x07\x8f\x07\n'
p4331
tp4332
Rp4333
sba(iexample
Example
p4334
(dp4335
g5
Nsg6
S'Jun the 3rd 2077 US'
p4336
sg8
Nsg9
g10
(S'\x08\x1d\x06\x03'
p4337
tp4338
Rp4339
sba(iexample
Example
p4340
(dp4341
g5
Nsg6
S'5 January 1964 non-US'
p4342
sg8
Nsg9
g10
(S'\x07\xac\x01\x05'
p4343
tp4344
Rp4345
sba(iexample
Example
p4346
(dp4347
g5
Nsg6
S'05 09 69 non-US'
p4348
sg8
Nsg9
g10
(S'\x07\xb1\t\x05'
p4349
tp4350
Rp4351
sba(iexample
Example
p4352
(dp4353
g5
Nsg6
S'January 17 2047 US'
p4354
sg8
Nsg9
g10
(S'\x07\xff\x01\x11'
p4355
tp4356
Rp4357
sba(iexample
Example
p4358
(dp4359
g5
Nsg6
S'Feb the 26th 1901 US'
p4360
sg8
Nsg9
g10
(S'\x07m\x02\x1a'
p4361
tp4362
Rp4363
sba(iexample
Example
p4364
(dp4365
g5
Nsg6
S'2024 08 10 non-US'
p4366
sg8
Nsg9
g10
(S'\x07\xe8\x08\n'
p4367
tp4368
Rp4369
sba(iexample
Example
p4370
(dp4371
g5
Nsg6
S'Nov the 26th 1953 US'
p4372
sg8
Nsg9
g10
(S'\x07\xa1\x0b\x1a'
p4373
tp4374
Rp4375
sba(iexample
Example
p4376
(dp4377
g5
Nsg6
S'2027 08 04 non-US'
p4378
sg8
Nsg9
g10
(S'\x07\xeb\x08\x04'
p4379
tp4380
Rp4381
sba(iexample
Example
p4382
(dp4383
g5
Nsg6
S'17 Feb 2047 non-US'
p4384
sg8
Nsg9
g10
(S'\x07\xff\x02\x11'
p4385
tp4386
Rp4387
sba(iexample
Example
p4388
(dp4389
g5
Nsg6
S'4 Mar 1990 non-US'
p4390
sg8
Nsg9
g10
(S'\x07\xc6\x03\x04'
p4391
tp4392
Rp4393
sba(iexample
Example
p4394
(dp4395
g5
Nsg6
S'20 February 1953 non-US'
p4396
sg8
Nsg9
g10
(S'\x07\xa1\x02\x14'
p4397
tp4398
Rp4399
sba(iexample
Example
p4400
(dp4401
g5
Nsg6
S'1931 07 05 non-US'
p4402
sg8
Nsg9
g10
(S'\x07\x8b\x07\x05'
p4403
tp4404
Rp4405
sba(iexample
Example
p4406
(dp4407
g5
Nsg6
S'May 31 1936 US'
p4408
sg8
Nsg9
g10
(S'\x07\x90\x05\x1f'
p4409
tp4410
Rp4411
sba(iexample
Example
p4412
(dp4413
g5
Nsg6
S'April 3 1904 US'
p4414
sg8
Nsg9
g10
(S'\x07p\x04\x03'
p4415
tp4416
Rp4417
sba(iexample
Example
p4418
(dp4419
g5
Nsg6
S'Jun the 4th 2074 US'
p4420
sg8
Nsg9
g10
(S'\x08\x1a\x06\x04'
p4421
tp4422
Rp4423
sba(iexample
Example
p4424
(dp4425
g5
Nsg6
S'06 04 12 US'
p4426
sg8
Nsg9
g10
(S'\x07x\x06\x04'
p4427
tp4428
Rp4429
sba(iexample
Example
p4430
(dp4431
g5
Nsg6
S'2061 02 08 non-US'
p4432
sg8
Nsg9
g10
(S'\x08\r\x02\x08'
p4433
tp4434
Rp4435
sba(iexample
Example
p4436
(dp4437
g5
Nsg6
S'1 5 1957 US'
p4438
sg8
Nsg9
g10
(S'\x07\xa5\x01\x05'
p4439
tp4440
Rp4441
sba(iexample
Example
p4442
(dp4443
g5
Nsg6
S'06 01 2020 non-US'
p4444
sg8
Nsg9
g10
(S'\x07\xe4\x01\x06'
p4445
tp4446
Rp4447
sba(iexample
Example
p4448
(dp4449
g5
Nsg6
S'Jun the 28th 1901 US'
p4450
sg8
Nsg9
g10
(S'\x07m\x06\x1c'
p4451
tp4452
Rp4453
sba(iexample
Example
p4454
(dp4455
g5
Nsg6
S'03 06 1984 non-US'
p4456
sg8
Nsg9
g10
(S'\x07\xc0\x06\x03'
p4457
tp4458
Rp4459
sba(iexample
Example
p4460
(dp4461
g5
Nsg6
S'28 2 2062 non-US'
p4462
sg8
Nsg9
g10
(S'\x08\x0e\x02\x1c'
p4463
tp4464
Rp4465
sba(iexample
Example
p4466
(dp4467
g5
Nsg6
S'09 08 30 US'
p4468
sg8
Nsg9
g10
(S'\x07\x8a\t\x08'
p4469
tp4470
Rp4471
sba(iexample
Example
p4472
(dp4473
g5
Nsg6
S'7 7 1904 US'
p4474
sg8
Nsg9
g10
(S'\x07p\x07\x07'
p4475
tp4476
Rp4477
sba(iexample
Example
p4478
(dp4479
g5
Nsg6
S'June the 29th 1963 US'
p4480
sg8
Nsg9
g10
(S'\x07\xab\x06\x1d'
p4481
tp4482
Rp4483
sba(iexample
Example
p4484
(dp4485
g5
Nsg6
S'9 9 2082 non-US'
p4486
sg8
Nsg9
g10
(S'\x08"\t\t'
p4487
tp4488
Rp4489
sba(iexample
Example
p4490
(dp4491
g5
Nsg6
S'August 17 1974 US'
p4492
sg8
Nsg9
g10
(S'\x07\xb6\x08\x11'
p4493
tp4494
Rp4495
sba(iexample
Example
p4496
(dp4497
g5
Nsg6
S'Apr the 12th 1928 US'
p4498
sg8
Nsg9
g10
(S'\x07\x88\x04\x0c'
p4499
tp4500
Rp4501
sba(iexample
Example
p4502
(dp4503
g5
Nsg6
S'2073 01 03 non-US'
p4504
sg8
Nsg9
g10
(S'\x08\x19\x01\x03'
p4505
tp4506
Rp4507
sba(iexample
Example
p4508
(dp4509
g5
Nsg6
S'15th Oct 2067 non-US'
p4510
sg8
Nsg9
g10
(S'\x08\x13\n\x0f'
p4511
tp4512
Rp4513
sba(iexample
Example
p4514
(dp4515
g5
Nsg6
S'12 19 1962 US'
p4516
sg8
Nsg9
g10
(S'\x07\xaa\x0c\x13'
p4517
tp4518
Rp4519
sba(iexample
Example
p4520
(dp4521
g5
Nsg6
S'21 Jul 1927 non-US'
p4522
sg8
Nsg9
g10
(S'\x07\x87\x07\x15'
p4523
tp4524
Rp4525
sba(iexample
Example
p4526
(dp4527
g5
Nsg6
S'February the 8th 1907 US'
p4528
sg8
Nsg9
g10
(S'\x07s\x02\x08'
p4529
tp4530
Rp4531
sba(iexample
Example
p4532
(dp4533
g5
Nsg6
S'2057 05 10 non-US'
p4534
sg8
Nsg9
g10
(S'\x08\t\x05\n'
p4535
tp4536
Rp4537
sba(iexample
Example
p4538
(dp4539
g5
Nsg6
S'Dec the 1st 1923 US'
p4540
sg8
Nsg9
g10
(S'\x07\x83\x0c\x01'
p4541
tp4542
Rp4543
sba(iexample
Example
p4544
(dp4545
g5
Nsg6
S'23 6 1994 non-US'
p4546
sg8
Nsg9
g10
(S'\x07\xca\x06\x17'
p4547
tp4548
Rp4549
sba(iexample
Example
p4550
(dp4551
g5
Nsg6
S'2nd Mar 2046 non-US'
p4552
sg8
Nsg9
g10
(S'\x07\xfe\x03\x02'
p4553
tp4554
Rp4555
sba(iexample
Example
p4556
(dp4557
g5
Nsg6
S'26 October 1915 non-US'
p4558
sg8
Nsg9
g10
(S'\x07{\n\x1a'
p4559
tp4560
Rp4561
sba(iexample
Example
p4562
(dp4563
g5
Nsg6
S'16th Nov 1972 non-US'
p4564
sg8
Nsg9
g10
(S'\x07\xb4\x0b\x10'
p4565
tp4566
Rp4567
sba(iexample
Example
p4568
(dp4569
g5
Nsg6
S'08 07 70 non-US'
p4570
sg8
Nsg9
g10
(S'\x07\xb2\x07\x08'
p4571
tp4572
Rp4573
sba(iexample
Example
p4574
(dp4575
g5
Nsg6
S'Oct the 1st 1994 US'
p4576
sg8
Nsg9
g10
(S'\x07\xca\n\x01'
p4577
tp4578
Rp4579
sba(iexample
Example
p4580
(dp4581
g5
Nsg6
S'Jul 25 2035 US'
p4582
sg8
Nsg9
g10
(S'\x07\xf3\x07\x19'
p4583
tp4584
Rp4585
sba(iexample
Example
p4586
(dp4587
g5
Nsg6
S'May the 7th 1993 US'
p4588
sg8
Nsg9
g10
(S'\x07\xc9\x05\x07'
p4589
tp4590
Rp4591
sba(iexample
Example
p4592
(dp4593
g5
Nsg6
S'5 27 1909 US'
p4594
sg8
Nsg9
g10
(S'\x07u\x05\x1b'
p4595
tp4596
Rp4597
sba(iexample
Example
p4598
(dp4599
g5
Nsg6
S'3 3 1963 US'
p4600
sg8
Nsg9
g10
(S'\x07\xab\x03\x03'
p4601
tp4602
Rp4603
sba(iexample
Example
p4604
(dp4605
g5
Nsg6
S'September 29 2046 US'
p4606
sg8
Nsg9
g10
(S'\x07\xfe\t\x1d'
p4607
tp4608
Rp4609
sba(iexample
Example
p4610
(dp4611
g5
Nsg6
S'Aug the 6th 2024 US'
p4612
sg8
Nsg9
g10
(S'\x07\xe8\x08\x06'
p4613
tp4614
Rp4615
sba(iexample
Example
p4616
(dp4617
g5
Nsg6
S'02 07 79 non-US'
p4618
sg8
Nsg9
g10
(S'\x07\xbb\x07\x02'
p4619
tp4620
Rp4621
sba(iexample
Example
p4622
(dp4623
g5
Nsg6
S'2 22 1917 US'
p4624
sg8
Nsg9
g10
(S'\x07}\x02\x16'
p4625
tp4626
Rp4627
sba(iexample
Example
p4628
(dp4629
g5
Nsg6
S'3rd January 1919 non-US'
p4630
sg8
Nsg9
g10
(S'\x07\x7f\x01\x03'
p4631
tp4632
Rp4633
sba(iexample
Example
p4634
(dp4635
g5
Nsg6
S'09 05 19 non-US'
p4636
sg8
Nsg9
g10
(S'\x07\x7f\x05\t'
p4637
tp4638
Rp4639
sba(iexample
Example
p4640
(dp4641
g5
Nsg6
S'07 03 43 US'
p4642
sg8
Nsg9
g10
(S'\x07\x97\x07\x03'
p4643
tp4644
Rp4645
sba(iexample
Example
p4646
(dp4647
g5
Nsg6
S'Mar 12 1930 US'
p4648
sg8
Nsg9
g10
(S'\x07\x8a\x03\x0c'
p4649
tp4650
Rp4651
sba(iexample
Example
p4652
(dp4653
g5
Nsg6
S'November the 2nd 2062 US'
p4654
sg8
Nsg9
g10
(S'\x08\x0e\x0b\x02'
p4655
tp4656
Rp4657
sba(iexample
Example
p4658
(dp4659
g5
Nsg6
S'24 December 1972 non-US'
p4660
sg8
Nsg9
g10
(S'\x07\xb4\x0c\x18'
p4661
tp4662
Rp4663
sba(iexample
Example
p4664
(dp4665
g5
Nsg6
S'February the 28th 1978 US'
p4666
sg8
Nsg9
g10
(S'\x07\xba\x02\x1c'
p4667
tp4668
Rp4669
sba(iexample
Example
p4670
(dp4671
g5
Nsg6
S'08 03 2060 non-US'
p4672
sg8
Nsg9
g10
(S'\x08\x0c\x03\x08'
p4673
tp4674
Rp4675
sba(iexample
Example
p4676
(dp4677
g5
Nsg6
S'1933 08 08 US'
p4678
sg8
Nsg9
g10
(S'\x07\x8d\x08\x08'
p4679
tp4680
Rp4681
sba(iexample
Example
p4682
(dp4683
g5
Nsg6
S'Feb the 16th 1949 US'
p4684
sg8
Nsg9
g10
(S'\x07\x9d\x02\x10'
p4685
tp4686
Rp4687
sba(iexample
Example
p4688
(dp4689
g5
Nsg6
S'2018 01 02 non-US'
p4690
sg8
Nsg9
g10
(S'\x07\xe2\x01\x02'
p4691
tp4692
Rp4693
sba(iexample
Example
p4694
(dp4695
g5
Nsg6
S'28th Sep 2018 non-US'
p4696
sg8
Nsg9
g10
(S'\x07\xe2\t\x1c'
p4697
tp4698
Rp4699
sba(iexample
Example
p4700
(dp4701
g5
Nsg6
S'Aug the 4th 2000 US'
p4702
sg8
Nsg9
g10
(S'\x07\xd0\x08\x04'
p4703
tp4704
Rp4705
sba(iexample
Example
p4706
(dp4707
g5
Nsg6
S'31 5 03 non-US'
p4708
sg8
Nsg9
g10
(S'\x07o\x05\x1f'
p4709
tp4710
Rp4711
sba(iexample
Example
p4712
(dp4713
g5
Nsg6
S'19th June 2027 non-US'
p4714
sg8
Nsg9
g10
(S'\x07\xeb\x06\x13'
p4715
tp4716
Rp4717
sba(iexample
Example
p4718
(dp4719
g5
Nsg6
S'Jun 4 2037 US'
p4720
sg8
Nsg9
g10
(S'\x07\xf5\x06\x04'
p4721
tp4722
Rp4723
sba(iexample
Example
p4724
(dp4725
g5
Nsg6
S'May the 16th 2028 US'
p4726
sg8
Nsg9
g10
(S'\x07\xec\x05\x10'
p4727
tp4728
Rp4729
sba(iexample
Example
p4730
(dp4731
g5
Nsg6
S'August the 1st 1959 US'
p4732
sg8
Nsg9
g10
(S'\x07\xa7\x08\x01'
p4733
tp4734
Rp4735
sba(iexample
Example
p4736
(dp4737
g5
Nsg6
S'28 4 2062 non-US'
p4738
sg8
Nsg9
g10
(S'\x08\x0e\x04\x1c'
p4739
tp4740
Rp4741
sba(iexample
Example
p4742
(dp4743
g5
Nsg6
S'22nd Apr 2085 non-US'
p4744
sg8
Nsg9
g10
(S'\x08%\x04\x16'
p4745
tp4746
Rp4747
sba(iexample
Example
p4748
(dp4749
g5
Nsg6
S'2 May 2068 non-US'
p4750
sg8
Nsg9
g10
(S'\x08\x14\x05\x02'
p4751
tp4752
Rp4753
sba(iexample
Example
p4754
(dp4755
g5
Nsg6
S'09 07 2061 US'
p4756
sg8
Nsg9
g10
(S'\x08\r\t\x07'
p4757
tp4758
Rp4759
sba(iexample
Example
p4760
(dp4761
g5
Nsg6
S'10 20 1989 US'
p4762
sg8
Nsg9
g10
(S'\x07\xc5\n\x14'
p4763
tp4764
Rp4765
sba(iexample
Example
p4766
(dp4767
g5
Nsg6
S'November the 18th 1918 US'
p4768
sg8
Nsg9
g10
(S'\x07~\x0b\x12'
p4769
tp4770
Rp4771
sba(iexample
Example
p4772
(dp4773
g5
Nsg6
S'Jul the 24th 1933 US'
p4774
sg8
Nsg9
g10
(S'\x07\x8d\x07\x18'
p4775
tp4776
Rp4777
sba(iexample
Example
p4778
(dp4779
g5
Nsg6
S'April 7 2083 US'
p4780
sg8
Nsg9
g10
(S'\x08#\x04\x07'
p4781
tp4782
Rp4783
sba(iexample
Example
p4784
(dp4785
g5
Nsg6
S'02 02 94 non-US'
p4786
sg8
Nsg9
g10
(S'\x07\xca\x02\x02'
p4787
tp4788
Rp4789
sba(iexample
Example
p4790
(dp4791
g5
Nsg6
S'August the 21st 2010 US'
p4792
sg8
Nsg9
g10
(S'\x07\xda\x08\x15'
p4793
tp4794
Rp4795
sba(iexample
Example
p4796
(dp4797
g5
Nsg6
S'28 Oct 1918 non-US'
p4798
sg8
Nsg9
g10
(S'\x07~\n\x1c'
p4799
tp4800
Rp4801
sba(iexample
Example
p4802
(dp4803
g5
Nsg6
S'April 30 1981 US'
p4804
sg8
Nsg9
g10
(S'\x07\xbd\x04\x1e'
p4805
tp4806
Rp4807
sba(iexample
Example
p4808
(dp4809
g5
Nsg6
S'2 Aug 2052 non-US'
p4810
sg8
Nsg9
g10
(S'\x08\x04\x08\x02'
p4811
tp4812
Rp4813
sba(iexample
Example
p4814
(dp4815
g5
Nsg6
S'February 3 2021 US'
p4816
sg8
Nsg9
g10
(S'\x07\xe5\x02\x03'
p4817
tp4818
Rp4819
sba(iexample
Example
p4820
(dp4821
g5
Nsg6
S'8 November 2051 non-US'
p4822
sg8
Nsg9
g10
(S'\x08\x03\x0b\x08'
p4823
tp4824
Rp4825
sba(iexample
Example
p4826
(dp4827
g5
Nsg6
S'4 3 07 US'
p4828
sg8
Nsg9
g10
(S'\x07s\x04\x03'
p4829
tp4830
Rp4831
sba(iexample
Example
p4832
(dp4833
g5
Nsg6
S'6th Aug 2094 non-US'
p4834
sg8
Nsg9
g10
(S'\x08.\x08\x06'
p4835
tp4836
Rp4837
sba(iexample
Example
p4838
(dp4839
g5
Nsg6
S'July the 26th 1948 US'
p4840
sg8
Nsg9
g10
(S'\x07\x9c\x07\x1a'
p4841
tp4842
Rp4843
sba(iexample
Example
p4844
(dp4845
g5
Nsg6
S'5th September 2059 non-US'
p4846
sg8
Nsg9
g10
(S'\x08\x0b\t\x05'
p4847
tp4848
Rp4849
sba(iexample
Example
p4850
(dp4851
g5
Nsg6
S'September the 2nd 1999 US'
p4852
sg8
Nsg9
g10
(S'\x07\xcf\t\x02'
p4853
tp4854
Rp4855
sba(iexample
Example
p4856
(dp4857
g5
Nsg6
S'04 06 2004 non-US'
p4858
sg8
Nsg9
g10
(S'\x07\xd4\x06\x04'
p4859
tp4860
Rp4861
sba(iexample
Example
p4862
(dp4863
g5
Nsg6
S'13 May 1964 non-US'
p4864
sg8
Nsg9
g10
(S'\x07\xac\x05\r'
p4865
tp4866
Rp4867
sba(iexample
Example
p4868
(dp4869
g5
Nsg6
S'2071 03 07 non-US'
p4870
sg8
Nsg9
g10
(S'\x08\x17\x03\x07'
p4871
tp4872
Rp4873
sba(iexample
Example
p4874
(dp4875
g5
Nsg6
S'12 4 95 US'
p4876
sg8
Nsg9
g10
(S'\x07\xcb\x0c\x04'
p4877
tp4878
Rp4879
sba(iexample
Example
p4880
(dp4881
g5
Nsg6
S'7 20 2071 US'
p4882
sg8
Nsg9
g10
(S'\x08\x17\x07\x14'
p4883
tp4884
Rp4885
sba(iexample
Example
p4886
(dp4887
g5
Nsg6
S'19 Jan 1994 non-US'
p4888
sg8
Nsg9
g10
(S'\x07\xca\x01\x13'
p4889
tp4890
Rp4891
sba(iexample
Example
p4892
(dp4893
g5
Nsg6
S'02 02 1975 non-US'
p4894
sg8
Nsg9
g10
(S'\x07\xb7\x02\x02'
p4895
tp4896
Rp4897
sba(iexample
Example
p4898
(dp4899
g5
Nsg6
S'10 06 2063 non-US'
p4900
sg8
Nsg9
g10
(S'\x08\x0f\x06\n'
p4901
tp4902
Rp4903
sba(iexample
Example
p4904
(dp4905
g5
Nsg6
S'1964 04 08 non-US'
p4906
sg8
Nsg9
g10
(S'\x07\xac\x04\x08'
p4907
tp4908
Rp4909
sba(iexample
Example
p4910
(dp4911
g5
Nsg6
S'5 October 2069 non-US'
p4912
sg8
Nsg9
g10
(S'\x08\x15\n\x05'
p4913
tp4914
Rp4915
sba(iexample
Example
p4916
(dp4917
g5
Nsg6
S'1935 06 07 non-US'
p4918
sg8
Nsg9
g10
(S'\x07\x8f\x06\x07'
p4919
tp4920
Rp4921
sba(iexample
Example
p4922
(dp4923
g5
Nsg6
S'1971 06 06 US'
p4924
sg8
Nsg9
g10
(S'\x07\xb3\x06\x06'
p4925
tp4926
Rp4927
sba(iexample
Example
p4928
(dp4929
g5
Nsg6
S'9th Feb 2012 non-US'
p4930
sg8
Nsg9
g10
(S'\x07\xdc\x02\t'
p4931
tp4932
Rp4933
sba(iexample
Example
p4934
(dp4935
g5
Nsg6
S'1917 07 03 non-US'
p4936
sg8
Nsg9
g10
(S'\x07}\x07\x03'
p4937
tp4938
Rp4939
sba(iexample
Example
p4940
(dp4941
g5
Nsg6
S'3rd April 1923 non-US'
p4942
sg8
Nsg9
g10
(S'\x07\x83\x04\x03'
p4943
tp4944
Rp4945
sba(iexample
Example
p4946
(dp4947
g5
Nsg6
S'November the 14th 1916 US'
p4948
sg8
Nsg9
g10
(S'\x07|\x0b\x0e'
p4949
tp4950
Rp4951
sba(iexample
Example
p4952
(dp4953
g5
Nsg6
S'14 May 1946 non-US'
p4954
sg8
Nsg9
g10
(S'\x07\x9a\x05\x0e'
p4955
tp4956
Rp4957
sba(iexample
Example
p4958
(dp4959
g5
Nsg6
S'Aug the 10th 2059 US'
p4960
sg8
Nsg9
g10
(S'\x08\x0b\x08\n'
p4961
tp4962
Rp4963
sba(iexample
Example
p4964
(dp4965
g5
Nsg6
S'3 2 1907 non-US'
p4966
sg8
Nsg9
g10
(S'\x07s\x02\x03'
p4967
tp4968
Rp4969
sba(iexample
Example
p4970
(dp4971
g5
Nsg6
S'02 04 73 US'
p4972
sg8
Nsg9
g10
(S'\x07\xb5\x02\x04'
p4973
tp4974
Rp4975
sba(iexample
Example
p4976
(dp4977
g5
Nsg6
S'08 06 2007 non-US'
p4978
sg8
Nsg9
g10
(S'\x07\xd7\x06\x08'
p4979
tp4980
Rp4981
sba(iexample
Example
p4982
(dp4983
g5
Nsg6
S'1910 06 08 non-US'
p4984
sg8
Nsg9
g10
(S'\x07v\x06\x08'
p4985
tp4986
Rp4987
sba(iexample
Example
p4988
(dp4989
g5
Nsg6
S'09 09 1948 non-US'
p4990
sg8
Nsg9
g10
(S'\x07\x9c\t\t'
p4991
tp4992
Rp4993
sba(iexample
Example
p4994
(dp4995
g5
Nsg6
S'4 24 79 US'
p4996
sg8
Nsg9
g10
(S'\x07\xbb\x04\x18'
p4997
tp4998
Rp4999
sba(iexample
Example
p5000
(dp5001
g5
Nsg6
S'06 01 2052 non-US'
p5002
sg8
Nsg9
g10
(S'\x08\x04\x01\x06'
p5003
tp5004
Rp5005
sba(iexample
Example
p5006
(dp5007
g5
Nsg6
S'10 12 09 non-US'
p5008
sg8
Nsg9
g10
(S'\x07u\x0c\n'
p5009
tp5010
Rp5011
sba(iexample
Example
p5012
(dp5013
g5
Nsg6
S'26 Feb 2050 non-US'
p5014
sg8
Nsg9
g10
(S'\x08\x02\x02\x1a'
p5015
tp5016
Rp5017
sba(iexample
Example
p5018
(dp5019
g5
Nsg6
S'2042 04 08 non-US'
p5020
sg8
Nsg9
g10
(S'\x07\xfa\x04\x08'
p5021
tp5022
Rp5023
sba(iexample
Example
p5024
(dp5025
g5
Nsg6
S'May 26 1952 US'
p5026
sg8
Nsg9
g10
(S'\x07\xa0\x05\x1a'
p5027
tp5028
Rp5029
sba(iexample
Example
p5030
(dp5031
g5
Nsg6
S'15 5 74 non-US'
p5032
sg8
Nsg9
g10
(S'\x07\xb6\x05\x0f'
p5033
tp5034
Rp5035
sba(iexample
Example
p5036
(dp5037
g5
Nsg6
S'February the 27th 2044 US'
p5038
sg8
Nsg9
g10
(S'\x07\xfc\x02\x1b'
p5039
tp5040
Rp5041
sba(iexample
Example
p5042
(dp5043
g5
Nsg6
S'24 Aug 2022 non-US'
p5044
sg8
Nsg9
g10
(S'\x07\xe6\x08\x18'
p5045
tp5046
Rp5047
sba(iexample
Example
p5048
(dp5049
g5
Nsg6
S'24 Aug 2020 non-US'
p5050
sg8
Nsg9
g10
(S'\x07\xe4\x08\x18'
p5051
tp5052
Rp5053
sba(iexample
Example
p5054
(dp5055
g5
Nsg6
S'8 5 2011 US'
p5056
sg8
Nsg9
g10
(S'\x07\xdb\x08\x05'
p5057
tp5058
Rp5059
sba(iexample
Example
p5060
(dp5061
g5
Nsg6
S'07 02 2054 non-US'
p5062
sg8
Nsg9
g10
(S'\x08\x06\x02\x07'
p5063
tp5064
Rp5065
sba(iexample
Example
p5066
(dp5067
g5
Nsg6
S'08 04 2078 US'
p5068
sg8
Nsg9
g10
(S'\x08\x1e\x08\x04'
p5069
tp5070
Rp5071
sba(iexample
Example
p5072
(dp5073
g5
Nsg6
S'November the 26th 2037 US'
p5074
sg8
Nsg9
g10
(S'\x07\xf5\x0b\x1a'
p5075
tp5076
Rp5077
sba(iexample
Example
p5078
(dp5079
g5
Nsg6
S'05 09 1949 US'
p5080
sg8
Nsg9
g10
(S'\x07\x9d\x05\t'
p5081
tp5082
Rp5083
sba(iexample
Example
p5084
(dp5085
g5
Nsg6
S'4 May 2046 non-US'
p5086
sg8
Nsg9
g10
(S'\x07\xfe\x05\x04'
p5087
tp5088
Rp5089
sba(iexample
Example
p5090
(dp5091
g5
Nsg6
S'Apr the 15th 2039 US'
p5092
sg8
Nsg9
g10
(S'\x07\xf7\x04\x0f'
p5093
tp5094
Rp5095
sba(iexample
Example
p5096
(dp5097
g5
Nsg6
S'Jun the 30th 2059 US'
p5098
sg8
Nsg9
g10
(S'\x08\x0b\x06\x1e'
p5099
tp5100
Rp5101
sba(iexample
Example
p5102
(dp5103
g5
Nsg6
S'26th August 1978 non-US'
p5104
sg8
Nsg9
g10
(S'\x07\xba\x08\x1a'
p5105
tp5106
Rp5107
sba(iexample
Example
p5108
(dp5109
g5
Nsg6
S'1982 03 05 non-US'
p5110
sg8
Nsg9
g10
(S'\x07\xbe\x03\x05'
p5111
tp5112
Rp5113
sba(iexample
Example
p5114
(dp5115
g5
Nsg6
S'August 11 1928 US'
p5116
sg8
Nsg9
g10
(S'\x07\x88\x08\x0b'
p5117
tp5118
Rp5119
sba(iexample
Example
p5120
(dp5121
g5
Nsg6
S'07 10 2073 US'
p5122
sg8
Nsg9
g10
(S'\x08\x19\x07\n'
p5123
tp5124
Rp5125
sba(iexample
Example
p5126
(dp5127
g5
Nsg6
S'07 05 1962 US'
p5128
sg8
Nsg9
g10
(S'\x07\xaa\x07\x05'
p5129
tp5130
Rp5131
sba(iexample
Example
p5132
(dp5133
g5
Nsg6
S'Feb the 16th 1973 US'
p5134
sg8
Nsg9
g10
(S'\x07\xb5\x02\x10'
p5135
tp5136
Rp5137
sba(iexample
Example
p5138
(dp5139
g5
Nsg6
S'Oct 14 1916 US'
p5140
sg8
Nsg9
g10
(S'\x07|\n\x0e'
p5141
tp5142
Rp5143
sba(iexample
Example
p5144
(dp5145
g5
Nsg6
S'Jul the 28th 1992 US'
p5146
sg8
Nsg9
g10
(S'\x07\xc8\x07\x1c'
p5147
tp5148
Rp5149
sba(iexample
Example
p5150
(dp5151
g5
Nsg6
S'23rd Jun 2054 non-US'
p5152
sg8
Nsg9
g10
(S'\x08\x06\x06\x17'
p5153
tp5154
Rp5155
sba(iexample
Example
p5156
(dp5157
g5
Nsg6
S'9 6 1971 non-US'
p5158
sg8
Nsg9
g10
(S'\x07\xb3\x06\t'
p5159
tp5160
Rp5161
sba(iexample
Example
p5162
(dp5163
g5
Nsg6
S'2nd Mar 2050 non-US'
p5164
sg8
Nsg9
g10
(S'\x08\x02\x03\x02'
p5165
tp5166
Rp5167
sba(iexample
Example
p5168
(dp5169
g5
Nsg6
S'06 07 2023 US'
p5170
sg8
Nsg9
g10
(S'\x07\xe7\x06\x07'
p5171
tp5172
Rp5173
sba(iexample
Example
p5174
(dp5175
g5
Nsg6
S'February the 28th 2092 US'
p5176
sg8
Nsg9
g10
(S'\x08,\x02\x1c'
p5177
tp5178
Rp5179
sba(iexample
Example
p5180
(dp5181
g5
Nsg6
S'September the 6th 2090 US'
p5182
sg8
Nsg9
g10
(S'\x08*\t\x06'
p5183
tp5184
Rp5185
sba(iexample
Example
p5186
(dp5187
g5
Nsg6
S'2019 06 09 US'
p5188
sg8
Nsg9
g10
(S'\x07\xe3\x06\t'
p5189
tp5190
Rp5191
sba(iexample
Example
p5192
(dp5193
g5
Nsg6
S'Nov 23 2080 US'
p5194
sg8
Nsg9
g10
(S'\x08 \x0b\x17'
p5195
tp5196
Rp5197
sba(iexample
Example
p5198
(dp5199
g5
Nsg6
S'2034 04 06 US'
p5200
sg8
Nsg9
g10
(S'\x07\xf2\x04\x06'
p5201
tp5202
Rp5203
sba(iexample
Example
p5204
(dp5205
g5
Nsg6
S'2053 09 01 non-US'
p5206
sg8
Nsg9
g10
(S'\x08\x05\t\x01'
p5207
tp5208
Rp5209
sba(iexample
Example
p5210
(dp5211
g5
Nsg6
S'26th May 2044 non-US'
p5212
sg8
Nsg9
g10
(S'\x07\xfc\x05\x1a'
p5213
tp5214
Rp5215
sba(iexample
Example
p5216
(dp5217
g5
Nsg6
S'2065 03 06 non-US'
p5218
sg8
Nsg9
g10
(S'\x08\x11\x03\x06'
p5219
tp5220
Rp5221
sba(iexample
Example
p5222
(dp5223
g5
Nsg6
S'23rd Nov 1916 non-US'
p5224
sg8
Nsg9
g10
(S'\x07|\x0b\x17'
p5225
tp5226
Rp5227
sba(iexample
Example
p5228
(dp5229
g5
Nsg6
S'7 November 2049 non-US'
p5230
sg8
Nsg9
g10
(S'\x08\x01\x0b\x07'
p5231
tp5232
Rp5233
sba(iexample
Example
p5234
(dp5235
g5
Nsg6
S'August 12 1950 US'
p5236
sg8
Nsg9
g10
(S'\x07\x9e\x08\x0c'
p5237
tp5238
Rp5239
sba(iexample
Example
p5240
(dp5241
g5
Nsg6
S'07 03 50 US'
p5242
sg8
Nsg9
g10
(S'\x07\x9e\x07\x03'
p5243
tp5244
Rp5245
sba(iexample
Example
p5246
(dp5247
g5
Nsg6
S'August 12 1958 US'
p5248
sg8
Nsg9
g10
(S'\x07\xa6\x08\x0c'
p5249
tp5250
Rp5251
sba(iexample
Example
p5252
(dp5253
g5
Nsg6
S'12 February 2066 non-US'
p5254
sg8
Nsg9
g10
(S'\x08\x12\x02\x0c'
p5255
tp5256
Rp5257
sba(iexample
Example
p5258
(dp5259
g5
Nsg6
S'1 4 2090 US'
p5260
sg8
Nsg9
g10
(S'\x08*\x01\x04'
p5261
tp5262
Rp5263
sba(iexample
Example
p5264
(dp5265
g5
Nsg6
S'2081 03 04 non-US'
p5266
sg8
Nsg9
g10
(S'\x08!\x03\x04'
p5267
tp5268
Rp5269
sba(iexample
Example
p5270
(dp5271
g5
Nsg6
S'02 09 2099 US'
p5272
sg8
Nsg9
g10
(S'\x083\x02\t'
p5273
tp5274
Rp5275
sba(iexample
Example
p5276
(dp5277
g5
Nsg6
S'Feb 3 1954 US'
p5278
sg8
Nsg9
g10
(S'\x07\xa2\x02\x03'
p5279
tp5280
Rp5281
sba(iexample
Example
p5282
(dp5283
g5
Nsg6
S'1980 02 04 non-US'
p5284
sg8
Nsg9
g10
(S'\x07\xbc\x02\x04'
p5285
tp5286
Rp5287
sba(iexample
Example
p5288
(dp5289
g5
Nsg6
S'Oct 11 2006 US'
p5290
sg8
Nsg9
g10
(S'\x07\xd6\n\x0b'
p5291
tp5292
Rp5293
sba(iexample
Example
p5294
(dp5295
g5
Nsg6
S'October the 29th 2069 US'
p5296
sg8
Nsg9
g10
(S'\x08\x15\n\x1d'
p5297
tp5298
Rp5299
sba(iexample
Example
p5300
(dp5301
g5
Nsg6
S'25th September 1908 non-US'
p5302
sg8
Nsg9
g10
(S'\x07t\t\x19'
p5303
tp5304
Rp5305
sba(iexample
Example
p5306
(dp5307
g5
Nsg6
S'31 Dec 1941 non-US'
p5308
sg8
Nsg9
g10
(S'\x07\x95\x0c\x1f'
p5309
tp5310
Rp5311
sba(iexample
Example
p5312
(dp5313
g5
Nsg6
S'1960 01 02 non-US'
p5314
sg8
Nsg9
g10
(S'\x07\xa8\x01\x02'
p5315
tp5316
Rp5317
sba(iexample
Example
p5318
(dp5319
g5
Nsg6
S'Aug the 21st 1936 US'
p5320
sg8
Nsg9
g10
(S'\x07\x90\x08\x15'
p5321
tp5322
Rp5323
sba(iexample
Example
p5324
(dp5325
g5
Nsg6
S'01 09 1980 non-US'
p5326
sg8
Nsg9
g10
(S'\x07\xbc\t\x01'
p5327
tp5328
Rp5329
sba(iexample
Example
p5330
(dp5331
g5
Nsg6
S'1902 05 03 non-US'
p5332
sg8
Nsg9
g10
(S'\x07n\x05\x03'
p5333
tp5334
Rp5335
sba(iexample
Example
p5336
(dp5337
g5
Nsg6
S'6 12 71 US'
p5338
sg8
Nsg9
g10
(S'\x07\xb3\x06\x0c'
p5339
tp5340
Rp5341
sba(iexample
Example
p5342
(dp5343
g5
Nsg6
S'Mar 14 2089 US'
p5344
sg8
Nsg9
g10
(S'\x08)\x03\x0e'
p5345
tp5346
Rp5347
sba(iexample
Example
p5348
(dp5349
g5
Nsg6
S'4th December 2008 non-US'
p5350
sg8
Nsg9
g10
(S'\x07\xd8\x0c\x04'
p5351
tp5352
Rp5353
sba(iexample
Example
p5354
(dp5355
g5
Nsg6
S'9 Jul 2076 non-US'
p5356
sg8
Nsg9
g10
(S'\x08\x1c\x07\t'
p5357
tp5358
Rp5359
sba(iexample
Example
p5360
(dp5361
g5
Nsg6
S'10th Feb 2066 non-US'
p5362
sg8
Nsg9
g10
(S'\x08\x12\x02\n'
p5363
tp5364
Rp5365
sba(iexample
Example
p5366
(dp5367
g5
Nsg6
S'1927 08 07 non-US'
p5368
sg8
Nsg9
g10
(S'\x07\x87\x08\x07'
p5369
tp5370
Rp5371
sba(iexample
Example
p5372
(dp5373
g5
Nsg6
S'4 16 1961 US'
p5374
sg8
Nsg9
g10
(S'\x07\xa9\x04\x10'
p5375
tp5376
Rp5377
sba(iexample
Example
p5378
(dp5379
g5
Nsg6
S'Jan the 12th 2083 US'
p5380
sg8
Nsg9
g10
(S'\x08#\x01\x0c'
p5381
tp5382
Rp5383
sba(iexample
Example
p5384
(dp5385
g5
Nsg6
S'Dec the 16th 2048 US'
p5386
sg8
Nsg9
g10
(S'\x08\x00\x0c\x10'
p5387
tp5388
Rp5389
sba(iexample
Example
p5390
(dp5391
g5
Nsg6
S'2039 07 03 non-US'
p5392
sg8
Nsg9
g10
(S'\x07\xf7\x07\x03'
p5393
tp5394
Rp5395
sba(iexample
Example
p5396
(dp5397
g5
Nsg6
S'08 03 1982 US'
p5398
sg8
Nsg9
g10
(S'\x07\xbe\x08\x03'
p5399
tp5400
Rp5401
sba(iexample
Example
p5402
(dp5403
g5
Nsg6
S'05 08 1976 US'
p5404
sg8
Nsg9
g10
(S'\x07\xb8\x05\x08'
p5405
tp5406
Rp5407
sba(iexample
Example
p5408
(dp5409
g5
Nsg6
S'02 05 27 non-US'
p5410
sg8
Nsg9
g10
(S'\x07\x87\x05\x02'
p5411
tp5412
Rp5413
sba(iexample
Example
p5414
(dp5415
g5
Nsg6
S'April the 6th 2000 US'
p5416
sg8
Nsg9
g10
(S'\x07\xd0\x04\x06'
p5417
tp5418
Rp5419
sba(iexample
Example
p5420
(dp5421
g5
Nsg6
S'10th Jun 2077 non-US'
p5422
sg8
Nsg9
g10
(S'\x08\x1d\x06\n'
p5423
tp5424
Rp5425
sba(iexample
Example
p5426
(dp5427
g5
Nsg6
S'May 25 1911 US'
p5428
sg8
Nsg9
g10
(S'\x07w\x05\x19'
p5429
tp5430
Rp5431
sba(iexample
Example
p5432
(dp5433
g5
Nsg6
S'2058 02 03 non-US'
p5434
sg8
Nsg9
g10
(S'\x08\n\x02\x03'
p5435
tp5436
Rp5437
sba(iexample
Example
p5438
(dp5439
g5
Nsg6
S'2001 09 08 non-US'
p5440
sg8
Nsg9
g10
(S'\x07\xd1\t\x08'
p5441
tp5442
Rp5443
sba(iexample
Example
p5444
(dp5445
g5
Nsg6
S'Sep 29 1993 US'
p5446
sg8
Nsg9
g10
(S'\x07\xc9\t\x1d'
p5447
tp5448
Rp5449
sba(iexample
Example
p5450
(dp5451
g5
Nsg6
S'25th October 1900 non-US'
p5452
sg8
Nsg9
g10
(S'\x07l\n\x19'
p5453
tp5454
Rp5455
sba(iexample
Example
p5456
(dp5457
g5
Nsg6
S'13 December 2038 non-US'
p5458
sg8
Nsg9
g10
(S'\x07\xf6\x0c\r'
p5459
tp5460
Rp5461
sba(iexample
Example
p5462
(dp5463
g5
Nsg6
S'04 03 16 US'
p5464
sg8
Nsg9
g10
(S'\x07|\x04\x03'
p5465
tp5466
Rp5467
sba(iexample
Example
p5468
(dp5469
g5
Nsg6
S'October 28 1955 US'
p5470
sg8
Nsg9
g10
(S'\x07\xa3\n\x1c'
p5471
tp5472
Rp5473
sba(iexample
Example
p5474
(dp5475
g5
Nsg6
S'9 November 2024 non-US'
p5476
sg8
Nsg9
g10
(S'\x07\xe8\x0b\t'
p5477
tp5478
Rp5479
sba(iexample
Example
p5480
(dp5481
g5
Nsg6
S'30th November 2005 non-US'
p5482
sg8
Nsg9
g10
(S'\x07\xd5\x0b\x1e'
p5483
tp5484
Rp5485
sba(iexample
Example
p5486
(dp5487
g5
Nsg6
S'6 Feb 2040 non-US'
p5488
sg8
Nsg9
g10
(S'\x07\xf8\x02\x06'
p5489
tp5490
Rp5491
sba(iexample
Example
p5492
(dp5493
g5
Nsg6
S'14th October 2032 non-US'
p5494
sg8
Nsg9
g10
(S'\x07\xf0\n\x0e'
p5495
tp5496
Rp5497
sba(iexample
Example
p5498
(dp5499
g5
Nsg6
S'09 07 59 US'
p5500
sg8
Nsg9
g10
(S'\x07\xa7\t\x07'
p5501
tp5502
Rp5503
sba(iexample
Example
p5504
(dp5505
g5
Nsg6
S'Dec 8 2065 US'
p5506
sg8
Nsg9
g10
(S'\x08\x11\x0c\x08'
p5507
tp5508
Rp5509
sba(iexample
Example
p5510
(dp5511
g5
Nsg6
S'23 Oct 1916 non-US'
p5512
sg8
Nsg9
g10
(S'\x07|\n\x17'
p5513
tp5514
Rp5515
sba(iexample
Example
p5516
(dp5517
g5
Nsg6
S'16 July 2034 non-US'
p5518
sg8
Nsg9
g10
(S'\x07\xf2\x07\x10'
p5519
tp5520
Rp5521
sba(iexample
Example
p5522
(dp5523
g5
Nsg6
S'04 05 1977 US'
p5524
sg8
Nsg9
g10
(S'\x07\xb9\x04\x05'
p5525
tp5526
Rp5527
sba(iexample
Example
p5528
(dp5529
g5
Nsg6
S'08 10 2019 US'
p5530
sg8
Nsg9
g10
(S'\x07\xe3\x08\n'
p5531
tp5532
Rp5533
sba(iexample
Example
p5534
(dp5535
g5
Nsg6
S'Dec 25 2087 US'
p5536
sg8
Nsg9
g10
(S"\x08'\x0c\x19"
p5537
tp5538
Rp5539
sba(iexample
Example
p5540
(dp5541
g5
Nsg6
S'2085 06 08 US'
p5542
sg8
Nsg9
g10
(S'\x08%\x06\x08'
p5543
tp5544
Rp5545
sba(iexample
Example
p5546
(dp5547
g5
Nsg6
S'2085 06 05 non-US'
p5548
sg8
Nsg9
g10
(S'\x08%\x06\x05'
p5549
tp5550
Rp5551
sba(iexample
Example
p5552
(dp5553
g5
Nsg6
S'31 December 2042 non-US'
p5554
sg8
Nsg9
g10
(S'\x07\xfa\x0c\x1f'
p5555
tp5556
Rp5557
sba(iexample
Example
p5558
(dp5559
g5
Nsg6
S'Apr 23 1922 US'
p5560
sg8
Nsg9
g10
(S'\x07\x82\x04\x17'
p5561
tp5562
Rp5563
sba(iexample
Example
p5564
(dp5565
g5
Nsg6
S'June 13 1916 US'
p5566
sg8
Nsg9
g10
(S'\x07|\x06\r'
p5567
tp5568
Rp5569
sba(iexample
Example
p5570
(dp5571
g5
Nsg6
S'July 5 2014 US'
p5572
sg8
Nsg9
g10
(S'\x07\xde\x07\x05'
p5573
tp5574
Rp5575
sba(iexample
Example
p5576
(dp5577
g5
Nsg6
S'05 01 09 US'
p5578
sg8
Nsg9
g10
(S'\x07u\x05\x01'
p5579
tp5580
Rp5581
sba(iexample
Example
p5582
(dp5583
g5
Nsg6
S'December the 4th 2029 US'
p5584
sg8
Nsg9
g10
(S'\x07\xed\x0c\x04'
p5585
tp5586
Rp5587
sba(iexample
Example
p5588
(dp5589
g5
Nsg6
S'01 09 16 US'
p5590
sg8
Nsg9
g10
(S'\x07|\x01\t'
p5591
tp5592
Rp5593
sba(iexample
Example
p5594
(dp5595
g5
Nsg6
S'03 07 2065 non-US'
p5596
sg8
Nsg9
g10
(S'\x08\x11\x07\x03'
p5597
tp5598
Rp5599
sba(iexample
Example
p5600
(dp5601
g5
Nsg6
S'8th April 2036 non-US'
p5602
sg8
Nsg9
g10
(S'\x07\xf4\x04\x08'
p5603
tp5604
Rp5605
sba(iexample
Example
p5606
(dp5607
g5
Nsg6
S'20 9 2073 non-US'
p5608
sg8
Nsg9
g10
(S'\x08\x19\t\x14'
p5609
tp5610
Rp5611
sba(iexample
Example
p5612
(dp5613
g5
Nsg6
S'01 09 2071 US'
p5614
sg8
Nsg9
g10
(S'\x08\x17\x01\t'
p5615
tp5616
Rp5617
sba(iexample
Example
p5618
(dp5619
g5
Nsg6
S'Dec 24 2006 US'
p5620
sg8
Nsg9
g10
(S'\x07\xd6\x0c\x18'
p5621
tp5622
Rp5623
sba(iexample
Example
p5624
(dp5625
g5
Nsg6
S'06 01 1935 non-US'
p5626
sg8
Nsg9
g10
(S'\x07\x8f\x01\x06'
p5627
tp5628
Rp5629
sba(iexample
Example
p5630
(dp5631
g5
Nsg6
S'1906 08 09 US'
p5632
sg8
Nsg9
g10
(S'\x07r\x08\t'
p5633
tp5634
Rp5635
sba(iexample
Example
p5636
(dp5637
g5
Nsg6
S'29th May 2046 non-US'
p5638
sg8
Nsg9
g10
(S'\x07\xfe\x05\x1d'
p5639
tp5640
Rp5641
sba(iexample
Example
p5642
(dp5643
g5
Nsg6
S'1989 02 01 non-US'
p5644
sg8
Nsg9
g10
(S'\x07\xc5\x02\x01'
p5645
tp5646
Rp5647
sba(iexample
Example
p5648
(dp5649
g5
Nsg6
S'February 13 2061 US'
p5650
sg8
Nsg9
g10
(S'\x08\r\x02\r'
p5651
tp5652
Rp5653
sba(iexample
Example
p5654
(dp5655
g5
Nsg6
S'Jul 21 2070 US'
p5656
sg8
Nsg9
g10
(S'\x08\x16\x07\x15'
p5657
tp5658
Rp5659
sba(iexample
Example
p5660
(dp5661
g5
Nsg6
S'1st Oct 1961 non-US'
p5662
sg8
Nsg9
g10
(S'\x07\xa9\n\x01'
p5663
tp5664
Rp5665
sba(iexample
Example
p5666
(dp5667
g5
Nsg6
S'29th Dec 1972 non-US'
p5668
sg8
Nsg9
g10
(S'\x07\xb4\x0c\x1d'
p5669
tp5670
Rp5671
sba(iexample
Example
p5672
(dp5673
g5
Nsg6
S'13 3 10 non-US'
p5674
sg8
Nsg9
g10
(S'\x07v\x03\r'
p5675
tp5676
Rp5677
sba(iexample
Example
p5678
(dp5679
g5
Nsg6
S'01 03 2046 US'
p5680
sg8
Nsg9
g10
(S'\x07\xfe\x01\x03'
p5681
tp5682
Rp5683
sba(iexample
Example
p5684
(dp5685
g5
Nsg6
S'4 4 1993 US'
p5686
sg8
Nsg9
g10
(S'\x07\xc9\x04\x04'
p5687
tp5688
Rp5689
sba(iexample
Example
p5690
(dp5691
g5
Nsg6
S'May 16 2076 US'
p5692
sg8
Nsg9
g10
(S'\x08\x1c\x05\x10'
p5693
tp5694
Rp5695
sba(iexample
Example
p5696
(dp5697
g5
Nsg6
S'February the 27th 2058 US'
p5698
sg8
Nsg9
g10
(S'\x08\n\x02\x1b'
p5699
tp5700
Rp5701
sba(iexample
Example
p5702
(dp5703
g5
Nsg6
S'09 01 51 non-US'
p5704
sg8
Nsg9
g10
(S'\x07\x9f\x01\t'
p5705
tp5706
Rp5707
sba(iexample
Example
p5708
(dp5709
g5
Nsg6
S'Feb the 18th 1924 US'
p5710
sg8
Nsg9
g10
(S'\x07\x84\x02\x12'
p5711
tp5712
Rp5713
sba(iexample
Example
p5714
(dp5715
g5
Nsg6
S'10 09 1932 non-US'
p5716
sg8
Nsg9
g10
(S'\x07\x8c\t\n'
p5717
tp5718
Rp5719
sba(iexample
Example
p5720
(dp5721
g5
Nsg6
S'1985 02 07 non-US'
p5722
sg8
Nsg9
g10
(S'\x07\xc1\x02\x07'
p5723
tp5724
Rp5725
sba(iexample
Example
p5726
(dp5727
g5
Nsg6
S'31 March 1931 non-US'
p5728
sg8
Nsg9
g10
(S'\x07\x8b\x03\x1f'
p5729
tp5730
Rp5731
sba(iexample
Example
p5732
(dp5733
g5
Nsg6
S'11th Apr 2052 non-US'
p5734
sg8
Nsg9
g10
(S'\x08\x04\x04\x0b'
p5735
tp5736
Rp5737
sba(iexample
Example
p5738
(dp5739
g5
Nsg6
S'04 10 60 US'
p5740
sg8
Nsg9
g10
(S'\x07\xa8\x04\n'
p5741
tp5742
Rp5743
sba(iexample
Example
p5744
(dp5745
g5
Nsg6
S'26th September 2046 non-US'
p5746
sg8
Nsg9
g10
(S'\x07\xfe\t\x1a'
p5747
tp5748
Rp5749
sba(iexample
Example
p5750
(dp5751
g5
Nsg6
S'2094 02 06 non-US'
p5752
sg8
Nsg9
g10
(S'\x08.\x02\x06'
p5753
tp5754
Rp5755
sba(iexample
Example
p5756
(dp5757
g5
Nsg6
S'7th May 2026 non-US'
p5758
sg8
Nsg9
g10
(S'\x07\xea\x05\x07'
p5759
tp5760
Rp5761
sba(iexample
Example
p5762
(dp5763
g5
Nsg6
S'16th Nov 1958 non-US'
p5764
sg8
Nsg9
g10
(S'\x07\xa6\x0b\x10'
p5765
tp5766
Rp5767
sba(iexample
Example
p5768
(dp5769
g5
Nsg6
S'05 07 1978 non-US'
p5770
sg8
Nsg9
g10
(S'\x07\xba\x07\x05'
p5771
tp5772
Rp5773
sba(iexample
Example
p5774
(dp5775
g5
Nsg6
S'8 21 2062 US'
p5776
sg8
Nsg9
g10
(S'\x08\x0e\x08\x15'
p5777
tp5778
Rp5779
sba(iexample
Example
p5780
(dp5781
g5
Nsg6
S'08 06 52 US'
p5782
sg8
Nsg9
g10
(S'\x07\xa0\x08\x06'
p5783
tp5784
Rp5785
sba(iexample
Example
p5786
(dp5787
g5
Nsg6
S'24th Feb 1984 non-US'
p5788
sg8
Nsg9
g10
(S'\x07\xc0\x02\x18'
p5789
tp5790
Rp5791
sba(iexample
Example
p5792
(dp5793
g5
Nsg6
S'20 7 18 non-US'
p5794
sg8
Nsg9
g10
(S'\x07~\x07\x14'
p5795
tp5796
Rp5797
sba(iexample
Example
p5798
(dp5799
g5
Nsg6
S'9 4 35 non-US'
p5800
sg8
Nsg9
g10
(S'\x07\x8f\x04\t'
p5801
tp5802
Rp5803
sba(iexample
Example
p5804
(dp5805
g5
Nsg6
S'1929 07 09 US'
p5806
sg8
Nsg9
g10
(S'\x07\x89\x07\t'
p5807
tp5808
Rp5809
sba(iexample
Example
p5810
(dp5811
g5
Nsg6
S'Jul the 14th 2029 US'
p5812
sg8
Nsg9
g10
(S'\x07\xed\x07\x0e'
p5813
tp5814
Rp5815
sba(iexample
Example
p5816
(dp5817
g5
Nsg6
S'1978 06 06 non-US'
p5818
sg8
Nsg9
g10
(S'\x07\xba\x06\x06'
p5819
tp5820
Rp5821
sba(iexample
Example
p5822
(dp5823
g5
Nsg6
S'25 June 1918 non-US'
p5824
sg8
Nsg9
g10
(S'\x07~\x06\x19'
p5825
tp5826
Rp5827
sba(iexample
Example
p5828
(dp5829
g5
Nsg6
S'08 02 2067 US'
p5830
sg8
Nsg9
g10
(S'\x08\x13\x08\x02'
p5831
tp5832
Rp5833
sba(iexample
Example
p5834
(dp5835
g5
Nsg6
S'28th Aug 1994 non-US'
p5836
sg8
Nsg9
g10
(S'\x07\xca\x08\x1c'
p5837
tp5838
Rp5839
sba(iexample
Example
p5840
(dp5841
g5
Nsg6
S'5th Oct 1969 non-US'
p5842
sg8
Nsg9
g10
(S'\x07\xb1\n\x05'
p5843
tp5844
Rp5845
sba(iexample
Example
p5846
(dp5847
g5
Nsg6
S'25th March 2069 non-US'
p5848
sg8
Nsg9
g10
(S'\x08\x15\x03\x19'
p5849
tp5850
Rp5851
sba(iexample
Example
p5852
(dp5853
g5
Nsg6
S'8 3 1928 US'
p5854
sg8
Nsg9
g10
(S'\x07\x88\x08\x03'
p5855
tp5856
Rp5857
sba(iexample
Example
p5858
(dp5859
g5
Nsg6
S'07 02 41 non-US'
p5860
sg8
Nsg9
g10
(S'\x07\x95\x02\x07'
p5861
tp5862
Rp5863
sba(iexample
Example
p5864
(dp5865
g5
Nsg6
S'February 18 2019 US'
p5866
sg8
Nsg9
g10
(S'\x07\xe3\x02\x12'
p5867
tp5868
Rp5869
sba(iexample
Example
p5870
(dp5871
g5
Nsg6
S'29th Apr 2062 non-US'
p5872
sg8
Nsg9
g10
(S'\x08\x0e\x04\x1d'
p5873
tp5874
Rp5875
sba(iexample
Example
p5876
(dp5877
g5
Nsg6
S'30th Oct 1905 non-US'
p5878
sg8
Nsg9
g10
(S'\x07q\n\x1e'
p5879
tp5880
Rp5881
sba(iexample
Example
p5882
(dp5883
g5
Nsg6
S'10 3 2037 non-US'
p5884
sg8
Nsg9
g10
(S'\x07\xf5\x03\n'
p5885
tp5886
Rp5887
sba(iexample
Example
p5888
(dp5889
g5
Nsg6
S'26 10 25 non-US'
p5890
sg8
Nsg9
g10
(S'\x07\x85\n\x1a'
p5891
tp5892
Rp5893
sba(iexample
Example
p5894
(dp5895
g5
Nsg6
S'21st Apr 2030 non-US'
p5896
sg8
Nsg9
g10
(S'\x07\xee\x04\x15'
p5897
tp5898
Rp5899
sba(iexample
Example
p5900
(dp5901
g5
Nsg6
S'Aug the 4th 1946 US'
p5902
sg8
Nsg9
g10
(S'\x07\x9a\x08\x04'
p5903
tp5904
Rp5905
sba(iexample
Example
p5906
(dp5907
g5
Nsg6
S'07 04 77 non-US'
p5908
sg8
Nsg9
g10
(S'\x07\xb9\x04\x07'
p5909
tp5910
Rp5911
sba(iexample
Example
p5912
(dp5913
g5
Nsg6
S'Nov 19 1947 US'
p5914
sg8
Nsg9
g10
(S'\x07\x9b\x0b\x13'
p5915
tp5916
Rp5917
sba(iexample
Example
p5918
(dp5919
g5
Nsg6
S'21 August 1970 non-US'
p5920
sg8
Nsg9
g10
(S'\x07\xb2\x08\x15'
p5921
tp5922
Rp5923
sba(iexample
Example
p5924
(dp5925
g5
Nsg6
S'Oct the 26th 1900 US'
p5926
sg8
Nsg9
g10
(S'\x07l\n\x1a'
p5927
tp5928
Rp5929
sba(iexample
Example
p5930
(dp5931
g5
Nsg6
S'Oct the 26th 1902 US'
p5932
sg8
Nsg9
g10
(S'\x07n\n\x1a'
p5933
tp5934
Rp5935
sba(iexample
Example
p5936
(dp5937
g5
Nsg6
S'Jan the 20th 2050 US'
p5938
sg8
Nsg9
g10
(S'\x08\x02\x01\x14'
p5939
tp5940
Rp5941
sba(iexample
Example
p5942
(dp5943
g5
Nsg6
S'10 04 2085 non-US'
p5944
sg8
Nsg9
g10
(S'\x08%\x04\n'
p5945
tp5946
Rp5947
sba(iexample
Example
p5948
(dp5949
g5
Nsg6
S'02 07 1992 US'
p5950
sg8
Nsg9
g10
(S'\x07\xc8\x02\x07'
p5951
tp5952
Rp5953
sba(iexample
Example
p5954
(dp5955
g5
Nsg6
S'September the 27th 1949 US'
p5956
sg8
Nsg9
g10
(S'\x07\x9d\t\x1b'
p5957
tp5958
Rp5959
sba(iexample
Example
p5960
(dp5961
g5
Nsg6
S'02 07 1999 non-US'
p5962
sg8
Nsg9
g10
(S'\x07\xcf\x07\x02'
p5963
tp5964
Rp5965
sba(iexample
Example
p5966
(dp5967
g5
Nsg6
S'31 8 88 non-US'
p5968
sg8
Nsg9
g10
(S'\x07\xc4\x08\x1f'
p5969
tp5970
Rp5971
sba(iexample
Example
p5972
(dp5973
g5
Nsg6
S'4 Apr 1934 non-US'
p5974
sg8
Nsg9
g10
(S'\x07\x8e\x04\x04'
p5975
tp5976
Rp5977
sba(iexample
Example
p5978
(dp5979
g5
Nsg6
S'1 12 1950 non-US'
p5980
sg8
Nsg9
g10
(S'\x07\x9e\x0c\x01'
p5981
tp5982
Rp5983
sba(iexample
Example
p5984
(dp5985
g5
Nsg6
S'17th Dec 2044 non-US'
p5986
sg8
Nsg9
g10
(S'\x07\xfc\x0c\x11'
p5987
tp5988
Rp5989
sba(iexample
Example
p5990
(dp5991
g5
Nsg6
S'Sep 1 1997 US'
p5992
sg8
Nsg9
g10
(S'\x07\xcd\t\x01'
p5993
tp5994
Rp5995
sba(iexample
Example
p5996
(dp5997
g5
Nsg6
S'10 05 97 non-US'
p5998
sg8
Nsg9
g10
(S'\x07\xcd\x05\n'
p5999
tp6000
Rp6001
sba(iexample
Example
p6002
(dp6003
g5
Nsg6
S'15 November 1978 non-US'
p6004
sg8
Nsg9
g10
(S'\x07\xba\x0b\x0f'
p6005
tp6006
Rp6007
sbasS'dev'
p6008
(lp6009
(iexample
Example
p6010
(dp6011
g5
Nsg6
S'05 09 2040 non-US'
p6012
sg8
Nsg9
g10
(S'\x07\xf8\t\x05'
p6013
tp6014
Rp6015
sba(iexample
Example
p6016
(dp6017
g5
Nsg6
S'January the 25th 1984 US'
p6018
sg8
Nsg9
g10
(S'\x07\xc0\x01\x19'
p6019
tp6020
Rp6021
sba(iexample
Example
p6022
(dp6023
g5
Nsg6
S'1976 04 08 non-US'
p6024
sg8
Nsg9
g10
(S'\x07\xb8\x04\x08'
p6025
tp6026
Rp6027
sba(iexample
Example
p6028
(dp6029
g5
Nsg6
S'2059 09 09 non-US'
p6030
sg8
Nsg9
g10
(S'\x08\x0b\t\t'
p6031
tp6032
Rp6033
sba(iexample
Example
p6034
(dp6035
g5
Nsg6
S'5th December 1940 non-US'
p6036
sg8
Nsg9
g10
(S'\x07\x94\x0c\x05'
p6037
tp6038
Rp6039
sba(iexample
Example
p6040
(dp6041
g5
Nsg6
S'January 8 1988 US'
p6042
sg8
Nsg9
g10
(S'\x07\xc4\x01\x08'
p6043
tp6044
Rp6045
sba(iexample
Example
p6046
(dp6047
g5
Nsg6
S'1996 03 04 non-US'
p6048
sg8
Nsg9
g10
(S'\x07\xcc\x03\x04'
p6049
tp6050
Rp6051
sba(iexample
Example
p6052
(dp6053
g5
Nsg6
S'14th October 1917 non-US'
p6054
sg8
Nsg9
g10
(S'\x07}\n\x0e'
p6055
tp6056
Rp6057
sba(iexample
Example
p6058
(dp6059
g5
Nsg6
S'Apr the 21st 2058 US'
p6060
sg8
Nsg9
g10
(S'\x08\n\x04\x15'
p6061
tp6062
Rp6063
sba(iexample
Example
p6064
(dp6065
g5
Nsg6
S'July 26 2028 US'
p6066
sg8
Nsg9
g10
(S'\x07\xec\x07\x1a'
p6067
tp6068
Rp6069
sba(iexample
Example
p6070
(dp6071
g5
Nsg6
S'1912 04 07 non-US'
p6072
sg8
Nsg9
g10
(S'\x07x\x04\x07'
p6073
tp6074
Rp6075
sba(iexample
Example
p6076
(dp6077
g5
Nsg6
S'06 10 06 US'
p6078
sg8
Nsg9
g10
(S'\x07r\x06\n'
p6079
tp6080
Rp6081
sba(iexample
Example
p6082
(dp6083
g5
Nsg6
S'5 Dec 1906 non-US'
p6084
sg8
Nsg9
g10
(S'\x07r\x0c\x05'
p6085
tp6086
Rp6087
sba(iexample
Example
p6088
(dp6089
g5
Nsg6
S'15 March 2096 non-US'
p6090
sg8
Nsg9
g10
(S'\x080\x03\x0f'
p6091
tp6092
Rp6093
sba(iexample
Example
p6094
(dp6095
g5
Nsg6
S'12 27 82 US'
p6096
sg8
Nsg9
g10
(S'\x07\xbe\x0c\x1b'
p6097
tp6098
Rp6099
sba(iexample
Example
p6100
(dp6101
g5
Nsg6
S'Aug the 28th 2030 US'
p6102
sg8
Nsg9
g10
(S'\x07\xee\x08\x1c'
p6103
tp6104
Rp6105
sba(iexample
Example
p6106
(dp6107
g5
Nsg6
S'Apr 12 2075 US'
p6108
sg8
Nsg9
g10
(S'\x08\x1b\x04\x0c'
p6109
tp6110
Rp6111
sba(iexample
Example
p6112
(dp6113
g5
Nsg6
S'Feb 15 1945 US'
p6114
sg8
Nsg9
g10
(S'\x07\x99\x02\x0f'
p6115
tp6116
Rp6117
sba(iexample
Example
p6118
(dp6119
g5
Nsg6
S'21 2 36 non-US'
p6120
sg8
Nsg9
g10
(S'\x07\x90\x02\x15'
p6121
tp6122
Rp6123
sba(iexample
Example
p6124
(dp6125
g5
Nsg6
S'10 Jul 1925 non-US'
p6126
sg8
Nsg9
g10
(S'\x07\x85\x07\n'
p6127
tp6128
Rp6129
sba(iexample
Example
p6130
(dp6131
g5
Nsg6
S'06 09 18 non-US'
p6132
sg8
Nsg9
g10
(S'\x07~\t\x06'
p6133
tp6134
Rp6135
sba(iexample
Example
p6136
(dp6137
g5
Nsg6
S'March 6 1931 US'
p6138
sg8
Nsg9
g10
(S'\x07\x8b\x03\x06'
p6139
tp6140
Rp6141
sba(iexample
Example
p6142
(dp6143
g5
Nsg6
S'09 09 2042 US'
p6144
sg8
Nsg9
g10
(S'\x07\xfa\t\t'
p6145
tp6146
Rp6147
sba(iexample
Example
p6148
(dp6149
g5
Nsg6
S'22 Sep 1945 non-US'
p6150
sg8
Nsg9
g10
(S'\x07\x99\t\x16'
p6151
tp6152
Rp6153
sba(iexample
Example
p6154
(dp6155
g5
Nsg6
S'November the 8th 1929 US'
p6156
sg8
Nsg9
g10
(S'\x07\x89\x0b\x08'
p6157
tp6158
Rp6159
sba(iexample
Example
p6160
(dp6161
g5
Nsg6
S'04 09 88 US'
p6162
sg8
Nsg9
g10
(S'\x07\xc4\x04\t'
p6163
tp6164
Rp6165
sba(iexample
Example
p6166
(dp6167
g5
Nsg6
S'05 10 1949 US'
p6168
sg8
Nsg9
g10
(S'\x07\x9d\x05\n'
p6169
tp6170
Rp6171
sba(iexample
Example
p6172
(dp6173
g5
Nsg6
S'1954 06 02 non-US'
p6174
sg8
Nsg9
g10
(S'\x07\xa2\x06\x02'
p6175
tp6176
Rp6177
sba(iexample
Example
p6178
(dp6179
g5
Nsg6
S'23rd February 1910 non-US'
p6180
sg8
Nsg9
g10
(S'\x07v\x02\x17'
p6181
tp6182
Rp6183
sba(iexample
Example
p6184
(dp6185
g5
Nsg6
S'July 17 1978 US'
p6186
sg8
Nsg9
g10
(S'\x07\xba\x07\x11'
p6187
tp6188
Rp6189
sba(iexample
Example
p6190
(dp6191
g5
Nsg6
S'2060 07 05 US'
p6192
sg8
Nsg9
g10
(S'\x08\x0c\x07\x05'
p6193
tp6194
Rp6195
sba(iexample
Example
p6196
(dp6197
g5
Nsg6
S'08 04 1950 non-US'
p6198
sg8
Nsg9
g10
(S'\x07\x9e\x04\x08'
p6199
tp6200
Rp6201
sba(iexample
Example
p6202
(dp6203
g5
Nsg6
S'9 13 1997 US'
p6204
sg8
Nsg9
g10
(S'\x07\xcd\t\r'
p6205
tp6206
Rp6207
sba(iexample
Example
p6208
(dp6209
g5
Nsg6
S'Mar 5 2057 US'
p6210
sg8
Nsg9
g10
(S'\x08\t\x03\x05'
p6211
tp6212
Rp6213
sba(iexample
Example
p6214
(dp6215
g5
Nsg6
S'15 1 1985 non-US'
p6216
sg8
Nsg9
g10
(S'\x07\xc1\x01\x0f'
p6217
tp6218
Rp6219
sba(iexample
Example
p6220
(dp6221
g5
Nsg6
S'Apr the 26th 2097 US'
p6222
sg8
Nsg9
g10
(S'\x081\x04\x1a'
p6223
tp6224
Rp6225
sba(iexample
Example
p6226
(dp6227
g5
Nsg6
S'01 09 63 US'
p6228
sg8
Nsg9
g10
(S'\x07\xab\x01\t'
p6229
tp6230
Rp6231
sba(iexample
Example
p6232
(dp6233
g5
Nsg6
S'Jun the 3rd 2080 US'
p6234
sg8
Nsg9
g10
(S'\x08 \x06\x03'
p6235
tp6236
Rp6237
sba(iexample
Example
p6238
(dp6239
g5
Nsg6
S'2001 05 02 non-US'
p6240
sg8
Nsg9
g10
(S'\x07\xd1\x05\x02'
p6241
tp6242
Rp6243
sba(iexample
Example
p6244
(dp6245
g5
Nsg6
S'08 08 2086 non-US'
p6246
sg8
Nsg9
g10
(S'\x08&\x08\x08'
p6247
tp6248
Rp6249
sba(iexample
Example
p6250
(dp6251
g5
Nsg6
S'14 Mar 2007 non-US'
p6252
sg8
Nsg9
g10
(S'\x07\xd7\x03\x0e'
p6253
tp6254
Rp6255
sba(iexample
Example
p6256
(dp6257
g5
Nsg6
S'Mar the 2nd 2069 US'
p6258
sg8
Nsg9
g10
(S'\x08\x15\x03\x02'
p6259
tp6260
Rp6261
sba(iexample
Example
p6262
(dp6263
g5
Nsg6
S'11th May 1917 non-US'
p6264
sg8
Nsg9
g10
(S'\x07}\x05\x0b'
p6265
tp6266
Rp6267
sba(iexample
Example
p6268
(dp6269
g5
Nsg6
S'12th December 1937 non-US'
p6270
sg8
Nsg9
g10
(S'\x07\x91\x0c\x0c'
p6271
tp6272
Rp6273
sba(iexample
Example
p6274
(dp6275
g5
Nsg6
S'February the 12th 1955 US'
p6276
sg8
Nsg9
g10
(S'\x07\xa3\x02\x0c'
p6277
tp6278
Rp6279
sba(iexample
Example
p6280
(dp6281
g5
Nsg6
S'Mar the 30th 2056 US'
p6282
sg8
Nsg9
g10
(S'\x08\x08\x03\x1e'
p6283
tp6284
Rp6285
sba(iexample
Example
p6286
(dp6287
g5
Nsg6
S'April the 1st 2028 US'
p6288
sg8
Nsg9
g10
(S'\x07\xec\x04\x01'
p6289
tp6290
Rp6291
sba(iexample
Example
p6292
(dp6293
g5
Nsg6
S'Apr the 25th 2090 US'
p6294
sg8
Nsg9
g10
(S'\x08*\x04\x19'
p6295
tp6296
Rp6297
sba(iexample
Example
p6298
(dp6299
g5
Nsg6
S'May 23 2026 US'
p6300
sg8
Nsg9
g10
(S'\x07\xea\x05\x17'
p6301
tp6302
Rp6303
sba(iexample
Example
p6304
(dp6305
g5
Nsg6
S'Sep 12 1922 US'
p6306
sg8
Nsg9
g10
(S'\x07\x82\t\x0c'
p6307
tp6308
Rp6309
sba(iexample
Example
p6310
(dp6311
g5
Nsg6
S'1934 05 10 non-US'
p6312
sg8
Nsg9
g10
(S'\x07\x8e\x05\n'
p6313
tp6314
Rp6315
sba(iexample
Example
p6316
(dp6317
g5
Nsg6
S'2068 01 10 non-US'
p6318
sg8
Nsg9
g10
(S'\x08\x14\x01\n'
p6319
tp6320
Rp6321
sba(iexample
Example
p6322
(dp6323
g5
Nsg6
S'September the 28th 1910 US'
p6324
sg8
Nsg9
g10
(S'\x07v\t\x1c'
p6325
tp6326
Rp6327
sba(iexample
Example
p6328
(dp6329
g5
Nsg6
S'1st January 2097 non-US'
p6330
sg8
Nsg9
g10
(S'\x081\x01\x01'
p6331
tp6332
Rp6333
sba(iexample
Example
p6334
(dp6335
g5
Nsg6
S'September the 9th 2046 US'
p6336
sg8
Nsg9
g10
(S'\x07\xfe\t\t'
p6337
tp6338
Rp6339
sba(iexample
Example
p6340
(dp6341
g5
Nsg6
S'1st August 1957 non-US'
p6342
sg8
Nsg9
g10
(S'\x07\xa5\x08\x01'
p6343
tp6344
Rp6345
sba(iexample
Example
p6346
(dp6347
g5
Nsg6
S'October 18 1998 US'
p6348
sg8
Nsg9
g10
(S'\x07\xce\n\x12'
p6349
tp6350
Rp6351
sba(iexample
Example
p6352
(dp6353
g5
Nsg6
S'11 July 1975 non-US'
p6354
sg8
Nsg9
g10
(S'\x07\xb7\x07\x0b'
p6355
tp6356
Rp6357
sba(iexample
Example
p6358
(dp6359
g5
Nsg6
S'8th Feb 1997 non-US'
p6360
sg8
Nsg9
g10
(S'\x07\xcd\x02\x08'
p6361
tp6362
Rp6363
sba(iexample
Example
p6364
(dp6365
g5
Nsg6
S'3 24 2003 US'
p6366
sg8
Nsg9
g10
(S'\x07\xd3\x03\x18'
p6367
tp6368
Rp6369
sba(iexample
Example
p6370
(dp6371
g5
Nsg6
S'28th May 1914 non-US'
p6372
sg8
Nsg9
g10
(S'\x07z\x05\x1c'
p6373
tp6374
Rp6375
sba(iexample
Example
p6376
(dp6377
g5
Nsg6
S'April 12 1948 US'
p6378
sg8
Nsg9
g10
(S'\x07\x9c\x04\x0c'
p6379
tp6380
Rp6381
sba(iexample
Example
p6382
(dp6383
g5
Nsg6
S'11 December 1948 non-US'
p6384
sg8
Nsg9
g10
(S'\x07\x9c\x0c\x0b'
p6385
tp6386
Rp6387
sba(iexample
Example
p6388
(dp6389
g5
Nsg6
S'28th May 1919 non-US'
p6390
sg8
Nsg9
g10
(S'\x07\x7f\x05\x1c'
p6391
tp6392
Rp6393
sba(iexample
Example
p6394
(dp6395
g5
Nsg6
S'07 07 02 non-US'
p6396
sg8
Nsg9
g10
(S'\x07n\x07\x07'
p6397
tp6398
Rp6399
sba(iexample
Example
p6400
(dp6401
g5
Nsg6
S'Jun 20 1949 US'
p6402
sg8
Nsg9
g10
(S'\x07\x9d\x06\x14'
p6403
tp6404
Rp6405
sba(iexample
Example
p6406
(dp6407
g5
Nsg6
S'03 07 36 US'
p6408
sg8
Nsg9
g10
(S'\x07\x90\x03\x07'
p6409
tp6410
Rp6411
sba(iexample
Example
p6412
(dp6413
g5
Nsg6
S'19 November 1904 non-US'
p6414
sg8
Nsg9
g10
(S'\x07p\x0b\x13'
p6415
tp6416
Rp6417
sba(iexample
Example
p6418
(dp6419
g5
Nsg6
S'31st December 1915 non-US'
p6420
sg8
Nsg9
g10
(S'\x07{\x0c\x1f'
p6421
tp6422
Rp6423
sba(iexample
Example
p6424
(dp6425
g5
Nsg6
S'04 08 68 non-US'
p6426
sg8
Nsg9
g10
(S'\x07\xb0\x08\x04'
p6427
tp6428
Rp6429
sba(iexample
Example
p6430
(dp6431
g5
Nsg6
S'04 08 66 non-US'
p6432
sg8
Nsg9
g10
(S'\x07\xae\x08\x04'
p6433
tp6434
Rp6435
sba(iexample
Example
p6436
(dp6437
g5
Nsg6
S'11th Dec 2028 non-US'
p6438
sg8
Nsg9
g10
(S'\x07\xec\x0c\x0b'
p6439
tp6440
Rp6441
sba(iexample
Example
p6442
(dp6443
g5
Nsg6
S'12 November 1902 non-US'
p6444
sg8
Nsg9
g10
(S'\x07n\x0b\x0c'
p6445
tp6446
Rp6447
sba(iexample
Example
p6448
(dp6449
g5
Nsg6
S'2060 04 08 non-US'
p6450
sg8
Nsg9
g10
(S'\x08\x0c\x04\x08'
p6451
tp6452
Rp6453
sba(iexample
Example
p6454
(dp6455
g5
Nsg6
S'6 11 93 US'
p6456
sg8
Nsg9
g10
(S'\x07\xc9\x06\x0b'
p6457
tp6458
Rp6459
sba(iexample
Example
p6460
(dp6461
g5
Nsg6
S'20 September 1966 non-US'
p6462
sg8
Nsg9
g10
(S'\x07\xae\t\x14'
p6463
tp6464
Rp6465
sba(iexample
Example
p6466
(dp6467
g5
Nsg6
S'July the 3rd 2015 US'
p6468
sg8
Nsg9
g10
(S'\x07\xdf\x07\x03'
p6469
tp6470
Rp6471
sba(iexample
Example
p6472
(dp6473
g5
Nsg6
S'29th Jul 2091 non-US'
p6474
sg8
Nsg9
g10
(S'\x08+\x07\x1d'
p6475
tp6476
Rp6477
sba(iexample
Example
p6478
(dp6479
g5
Nsg6
S'2057 02 07 non-US'
p6480
sg8
Nsg9
g10
(S'\x08\t\x02\x07'
p6481
tp6482
Rp6483
sba(iexample
Example
p6484
(dp6485
g5
Nsg6
S'March 27 2010 US'
p6486
sg8
Nsg9
g10
(S'\x07\xda\x03\x1b'
p6487
tp6488
Rp6489
sba(iexample
Example
p6490
(dp6491
g5
Nsg6
S'27 8 2034 non-US'
p6492
sg8
Nsg9
g10
(S'\x07\xf2\x08\x1b'
p6493
tp6494
Rp6495
sba(iexample
Example
p6496
(dp6497
g5
Nsg6
S'25th May 2080 non-US'
p6498
sg8
Nsg9
g10
(S'\x08 \x05\x19'
p6499
tp6500
Rp6501
sba(iexample
Example
p6502
(dp6503
g5
Nsg6
S'26 5 44 non-US'
p6504
sg8
Nsg9
g10
(S'\x07\x98\x05\x1a'
p6505
tp6506
Rp6507
sba(iexample
Example
p6508
(dp6509
g5
Nsg6
S'08 06 26 US'
p6510
sg8
Nsg9
g10
(S'\x07\x86\x08\x06'
p6511
tp6512
Rp6513
sba(iexample
Example
p6514
(dp6515
g5
Nsg6
S'03 01 2068 US'
p6516
sg8
Nsg9
g10
(S'\x08\x14\x03\x01'
p6517
tp6518
Rp6519
sba(iexample
Example
p6520
(dp6521
g5
Nsg6
S'Jun the 21st 2079 US'
p6522
sg8
Nsg9
g10
(S'\x08\x1f\x06\x15'
p6523
tp6524
Rp6525
sba(iexample
Example
p6526
(dp6527
g5
Nsg6
S'5 March 2051 non-US'
p6528
sg8
Nsg9
g10
(S'\x08\x03\x03\x05'
p6529
tp6530
Rp6531
sba(iexample
Example
p6532
(dp6533
g5
Nsg6
S'20 November 1995 non-US'
p6534
sg8
Nsg9
g10
(S'\x07\xcb\x0b\x14'
p6535
tp6536
Rp6537
sba(iexample
Example
p6538
(dp6539
g5
Nsg6
S'1965 07 07 non-US'
p6540
sg8
Nsg9
g10
(S'\x07\xad\x07\x07'
p6541
tp6542
Rp6543
sba(iexample
Example
p6544
(dp6545
g5
Nsg6
S'2063 05 07 US'
p6546
sg8
Nsg9
g10
(S'\x08\x0f\x05\x07'
p6547
tp6548
Rp6549
sba(iexample
Example
p6550
(dp6551
g5
Nsg6
S'25th Jan 2081 non-US'
p6552
sg8
Nsg9
g10
(S'\x08!\x01\x19'
p6553
tp6554
Rp6555
sba(iexample
Example
p6556
(dp6557
g5
Nsg6
S'7th Feb 2007 non-US'
p6558
sg8
Nsg9
g10
(S'\x07\xd7\x02\x07'
p6559
tp6560
Rp6561
sba(iexample
Example
p6562
(dp6563
g5
Nsg6
S'2088 03 10 non-US'
p6564
sg8
Nsg9
g10
(S'\x08(\x03\n'
p6565
tp6566
Rp6567
sba(iexample
Example
p6568
(dp6569
g5
Nsg6
S'August the 19th 2002 US'
p6570
sg8
Nsg9
g10
(S'\x07\xd2\x08\x13'
p6571
tp6572
Rp6573
sba(iexample
Example
p6574
(dp6575
g5
Nsg6
S'04 08 2064 US'
p6576
sg8
Nsg9
g10
(S'\x08\x10\x04\x08'
p6577
tp6578
Rp6579
sba(iexample
Example
p6580
(dp6581
g5
Nsg6
S'12 28 17 US'
p6582
sg8
Nsg9
g10
(S'\x07}\x0c\x1c'
p6583
tp6584
Rp6585
sba(iexample
Example
p6586
(dp6587
g5
Nsg6
S'11 September 2059 non-US'
p6588
sg8
Nsg9
g10
(S'\x08\x0b\t\x0b'
p6589
tp6590
Rp6591
sba(iexample
Example
p6592
(dp6593
g5
Nsg6
S'01 01 1910 non-US'
p6594
sg8
Nsg9
g10
(S'\x07v\x01\x01'
p6595
tp6596
Rp6597
sba(iexample
Example
p6598
(dp6599
g5
Nsg6
S'17 May 2026 non-US'
p6600
sg8
Nsg9
g10
(S'\x07\xea\x05\x11'
p6601
tp6602
Rp6603
sba(iexample
Example
p6604
(dp6605
g5
Nsg6
S'8 6 2032 non-US'
p6606
sg8
Nsg9
g10
(S'\x07\xf0\x06\x08'
p6607
tp6608
Rp6609
sba(iexample
Example
p6610
(dp6611
g5
Nsg6
S'Aug the 14th 2078 US'
p6612
sg8
Nsg9
g10
(S'\x08\x1e\x08\x0e'
p6613
tp6614
Rp6615
sba(iexample
Example
p6616
(dp6617
g5
Nsg6
S'13 Jan 2002 non-US'
p6618
sg8
Nsg9
g10
(S'\x07\xd2\x01\r'
p6619
tp6620
Rp6621
sba(iexample
Example
p6622
(dp6623
g5
Nsg6
S'Sep 30 1928 US'
p6624
sg8
Nsg9
g10
(S'\x07\x88\t\x1e'
p6625
tp6626
Rp6627
sba(iexample
Example
p6628
(dp6629
g5
Nsg6
S'07 08 99 non-US'
p6630
sg8
Nsg9
g10
(S'\x07\xcf\x08\x07'
p6631
tp6632
Rp6633
sba(iexample
Example
p6634
(dp6635
g5
Nsg6
S'May 8 2003 US'
p6636
sg8
Nsg9
g10
(S'\x07\xd3\x05\x08'
p6637
tp6638
Rp6639
sba(iexample
Example
p6640
(dp6641
g5
Nsg6
S'23rd November 1905 non-US'
p6642
sg8
Nsg9
g10
(S'\x07q\x0b\x17'
p6643
tp6644
Rp6645
sba(iexample
Example
p6646
(dp6647
g5
Nsg6
S'October the 20th 2080 US'
p6648
sg8
Nsg9
g10
(S'\x08 \n\x14'
p6649
tp6650
Rp6651
sba(iexample
Example
p6652
(dp6653
g5
Nsg6
S'03 04 1991 US'
p6654
sg8
Nsg9
g10
(S'\x07\xc7\x03\x04'
p6655
tp6656
Rp6657
sba(iexample
Example
p6658
(dp6659
g5
Nsg6
S'May the 30th 1970 US'
p6660
sg8
Nsg9
g10
(S'\x07\xb2\x05\x1e'
p6661
tp6662
Rp6663
sba(iexample
Example
p6664
(dp6665
g5
Nsg6
S'01 02 1998 US'
p6666
sg8
Nsg9
g10
(S'\x07\xce\x01\x02'
p6667
tp6668
Rp6669
sba(iexample
Example
p6670
(dp6671
g5
Nsg6
S'Oct 11 2020 US'
p6672
sg8
Nsg9
g10
(S'\x07\xe4\n\x0b'
p6673
tp6674
Rp6675
sba(iexample
Example
p6676
(dp6677
g5
Nsg6
S'13 Aug 2022 non-US'
p6678
sg8
Nsg9
g10
(S'\x07\xe6\x08\r'
p6679
tp6680
Rp6681
sba(iexample
Example
p6682
(dp6683
g5
Nsg6
S'1 24 1947 US'
p6684
sg8
Nsg9
g10
(S'\x07\x9b\x01\x18'
p6685
tp6686
Rp6687
sba(iexample
Example
p6688
(dp6689
g5
Nsg6
S'August the 26th 2042 US'
p6690
sg8
Nsg9
g10
(S'\x07\xfa\x08\x1a'
p6691
tp6692
Rp6693
sba(iexample
Example
p6694
(dp6695
g5
Nsg6
S'January the 30th 1917 US'
p6696
sg8
Nsg9
g10
(S'\x07}\x01\x1e'
p6697
tp6698
Rp6699
sba(iexample
Example
p6700
(dp6701
g5
Nsg6
S'18 7 1974 non-US'
p6702
sg8
Nsg9
g10
(S'\x07\xb6\x07\x12'
p6703
tp6704
Rp6705
sba(iexample
Example
p6706
(dp6707
g5
Nsg6
S'2039 03 01 non-US'
p6708
sg8
Nsg9
g10
(S'\x07\xf7\x03\x01'
p6709
tp6710
Rp6711
sba(iexample
Example
p6712
(dp6713
g5
Nsg6
S'2024 01 02 non-US'
p6714
sg8
Nsg9
g10
(S'\x07\xe8\x01\x02'
p6715
tp6716
Rp6717
sba(iexample
Example
p6718
(dp6719
g5
Nsg6
S'October 17 2062 US'
p6720
sg8
Nsg9
g10
(S'\x08\x0e\n\x11'
p6721
tp6722
Rp6723
sba(iexample
Example
p6724
(dp6725
g5
Nsg6
S'2091 07 10 non-US'
p6726
sg8
Nsg9
g10
(S'\x08+\x07\n'
p6727
tp6728
Rp6729
sba(iexample
Example
p6730
(dp6731
g5
Nsg6
S'October the 24th 2081 US'
p6732
sg8
Nsg9
g10
(S'\x08!\n\x18'
p6733
tp6734
Rp6735
sba(iexample
Example
p6736
(dp6737
g5
Nsg6
S'1924 02 04 non-US'
p6738
sg8
Nsg9
g10
(S'\x07\x84\x02\x04'
p6739
tp6740
Rp6741
sba(iexample
Example
p6742
(dp6743
g5
Nsg6
S'2032 07 04 non-US'
p6744
sg8
Nsg9
g10
(S'\x07\xf0\x07\x04'
p6745
tp6746
Rp6747
sba(iexample
Example
p6748
(dp6749
g5
Nsg6
S'2034 08 02 non-US'
p6750
sg8
Nsg9
g10
(S'\x07\xf2\x08\x02'
p6751
tp6752
Rp6753
sba(iexample
Example
p6754
(dp6755
g5
Nsg6
S'06 05 13 non-US'
p6756
sg8
Nsg9
g10
(S'\x07y\x05\x06'
p6757
tp6758
Rp6759
sba(iexample
Example
p6760
(dp6761
g5
Nsg6
S'08 04 86 non-US'
p6762
sg8
Nsg9
g10
(S'\x07\xc2\x04\x08'
p6763
tp6764
Rp6765
sba(iexample
Example
p6766
(dp6767
g5
Nsg6
S'Feb the 28th 2009 US'
p6768
sg8
Nsg9
g10
(S'\x07\xd9\x02\x1c'
p6769
tp6770
Rp6771
sba(iexample
Example
p6772
(dp6773
g5
Nsg6
S'19 December 2013 non-US'
p6774
sg8
Nsg9
g10
(S'\x07\xdd\x0c\x13'
p6775
tp6776
Rp6777
sba(iexample
Example
p6778
(dp6779
g5
Nsg6
S'20 June 2053 non-US'
p6780
sg8
Nsg9
g10
(S'\x08\x05\x06\x14'
p6781
tp6782
Rp6783
sba(iexample
Example
p6784
(dp6785
g5
Nsg6
S'2 22 37 US'
p6786
sg8
Nsg9
g10
(S'\x07\x91\x02\x16'
p6787
tp6788
Rp6789
sba(iexample
Example
p6790
(dp6791
g5
Nsg6
S'7 Apr 1945 non-US'
p6792
sg8
Nsg9
g10
(S'\x07\x99\x04\x07'
p6793
tp6794
Rp6795
sba(iexample
Example
p6796
(dp6797
g5
Nsg6
S'30th November 1902 non-US'
p6798
sg8
Nsg9
g10
(S'\x07n\x0b\x1e'
p6799
tp6800
Rp6801
sba(iexample
Example
p6802
(dp6803
g5
Nsg6
S'22 7 66 non-US'
p6804
sg8
Nsg9
g10
(S'\x07\xae\x07\x16'
p6805
tp6806
Rp6807
sba(iexample
Example
p6808
(dp6809
g5
Nsg6
S'2097 03 09 non-US'
p6810
sg8
Nsg9
g10
(S'\x081\x03\t'
p6811
tp6812
Rp6813
sba(iexample
Example
p6814
(dp6815
g5
Nsg6
S'March the 31st 2091 US'
p6816
sg8
Nsg9
g10
(S'\x08+\x03\x1f'
p6817
tp6818
Rp6819
sba(iexample
Example
p6820
(dp6821
g5
Nsg6
S'07 09 58 US'
p6822
sg8
Nsg9
g10
(S'\x07\xa6\x07\t'
p6823
tp6824
Rp6825
sba(iexample
Example
p6826
(dp6827
g5
Nsg6
S'1992 03 01 non-US'
p6828
sg8
Nsg9
g10
(S'\x07\xc8\x03\x01'
p6829
tp6830
Rp6831
sba(iexample
Example
p6832
(dp6833
g5
Nsg6
S'29th September 2026 non-US'
p6834
sg8
Nsg9
g10
(S'\x07\xea\t\x1d'
p6835
tp6836
Rp6837
sba(iexample
Example
p6838
(dp6839
g5
Nsg6
S'Mar the 1st 1951 US'
p6840
sg8
Nsg9
g10
(S'\x07\x9f\x03\x01'
p6841
tp6842
Rp6843
sba(iexample
Example
p6844
(dp6845
g5
Nsg6
S'10 09 2020 non-US'
p6846
sg8
Nsg9
g10
(S'\x07\xe4\t\n'
p6847
tp6848
Rp6849
sba(iexample
Example
p6850
(dp6851
g5
Nsg6
S'July the 19th 2052 US'
p6852
sg8
Nsg9
g10
(S'\x08\x04\x07\x13'
p6853
tp6854
Rp6855
sba(iexample
Example
p6856
(dp6857
g5
Nsg6
S'Dec the 27th 1900 US'
p6858
sg8
Nsg9
g10
(S'\x07l\x0c\x1b'
p6859
tp6860
Rp6861
sba(iexample
Example
p6862
(dp6863
g5
Nsg6
S'2009 07 01 non-US'
p6864
sg8
Nsg9
g10
(S'\x07\xd9\x07\x01'
p6865
tp6866
Rp6867
sba(iexample
Example
p6868
(dp6869
g5
Nsg6
S'01 03 94 US'
p6870
sg8
Nsg9
g10
(S'\x07\xca\x01\x03'
p6871
tp6872
Rp6873
sba(iexample
Example
p6874
(dp6875
g5
Nsg6
S'November 8 1921 US'
p6876
sg8
Nsg9
g10
(S'\x07\x81\x0b\x08'
p6877
tp6878
Rp6879
sba(iexample
Example
p6880
(dp6881
g5
Nsg6
S'Mar the 2nd 2055 US'
p6882
sg8
Nsg9
g10
(S'\x08\x07\x03\x02'
p6883
tp6884
Rp6885
sba(iexample
Example
p6886
(dp6887
g5
Nsg6
S'29 Aug 1926 non-US'
p6888
sg8
Nsg9
g10
(S'\x07\x86\x08\x1d'
p6889
tp6890
Rp6891
sba(iexample
Example
p6892
(dp6893
g5
Nsg6
S'October 3 2059 US'
p6894
sg8
Nsg9
g10
(S'\x08\x0b\n\x03'
p6895
tp6896
Rp6897
sba(iexample
Example
p6898
(dp6899
g5
Nsg6
S'14 Sep 2035 non-US'
p6900
sg8
Nsg9
g10
(S'\x07\xf3\t\x0e'
p6901
tp6902
Rp6903
sba(iexample
Example
p6904
(dp6905
g5
Nsg6
S'14 Sep 2034 non-US'
p6906
sg8
Nsg9
g10
(S'\x07\xf2\t\x0e'
p6907
tp6908
Rp6909
sba(iexample
Example
p6910
(dp6911
g5
Nsg6
S'Feb the 22nd 1913 US'
p6912
sg8
Nsg9
g10
(S'\x07y\x02\x16'
p6913
tp6914
Rp6915
sba(iexample
Example
p6916
(dp6917
g5
Nsg6
S'December 19 1941 US'
p6918
sg8
Nsg9
g10
(S'\x07\x95\x0c\x13'
p6919
tp6920
Rp6921
sba(iexample
Example
p6922
(dp6923
g5
Nsg6
S'08 08 2093 non-US'
p6924
sg8
Nsg9
g10
(S'\x08-\x08\x08'
p6925
tp6926
Rp6927
sba(iexample
Example
p6928
(dp6929
g5
Nsg6
S'20 May 2072 non-US'
p6930
sg8
Nsg9
g10
(S'\x08\x18\x05\x14'
p6931
tp6932
Rp6933
sba(iexample
Example
p6934
(dp6935
g5
Nsg6
S'1968 06 06 non-US'
p6936
sg8
Nsg9
g10
(S'\x07\xb0\x06\x06'
p6937
tp6938
Rp6939
sba(iexample
Example
p6940
(dp6941
g5
Nsg6
S'5th March 2077 non-US'
p6942
sg8
Nsg9
g10
(S'\x08\x1d\x03\x05'
p6943
tp6944
Rp6945
sba(iexample
Example
p6946
(dp6947
g5
Nsg6
S'24 6 22 non-US'
p6948
sg8
Nsg9
g10
(S'\x07\x82\x06\x18'
p6949
tp6950
Rp6951
sba(iexample
Example
p6952
(dp6953
g5
Nsg6
S'2055 07 03 non-US'
p6954
sg8
Nsg9
g10
(S'\x08\x07\x07\x03'
p6955
tp6956
Rp6957
sba(iexample
Example
p6958
(dp6959
g5
Nsg6
S'09 06 2096 non-US'
p6960
sg8
Nsg9
g10
(S'\x080\x06\t'
p6961
tp6962
Rp6963
sba(iexample
Example
p6964
(dp6965
g5
Nsg6
S'27 5 26 non-US'
p6966
sg8
Nsg9
g10
(S'\x07\x86\x05\x1b'
p6967
tp6968
Rp6969
sba(iexample
Example
p6970
(dp6971
g5
Nsg6
S'23 11 26 non-US'
p6972
sg8
Nsg9
g10
(S'\x07\x86\x0b\x17'
p6973
tp6974
Rp6975
sba(iexample
Example
p6976
(dp6977
g5
Nsg6
S'23 11 22 non-US'
p6978
sg8
Nsg9
g10
(S'\x07\x82\x0b\x17'
p6979
tp6980
Rp6981
sba(iexample
Example
p6982
(dp6983
g5
Nsg6
S'23rd April 2029 non-US'
p6984
sg8
Nsg9
g10
(S'\x07\xed\x04\x17'
p6985
tp6986
Rp6987
sba(iexample
Example
p6988
(dp6989
g5
Nsg6
S'Feb the 17th 1953 US'
p6990
sg8
Nsg9
g10
(S'\x07\xa1\x02\x11'
p6991
tp6992
Rp6993
sba(iexample
Example
p6994
(dp6995
g5
Nsg6
S'7 3 1936 non-US'
p6996
sg8
Nsg9
g10
(S'\x07\x90\x03\x07'
p6997
tp6998
Rp6999
sba(iexample
Example
p7000
(dp7001
g5
Nsg6
S'2083 01 06 non-US'
p7002
sg8
Nsg9
g10
(S'\x08#\x01\x06'
p7003
tp7004
Rp7005
sba(iexample
Example
p7006
(dp7007
g5
Nsg6
S'1937 01 10 non-US'
p7008
sg8
Nsg9
g10
(S'\x07\x91\x01\n'
p7009
tp7010
Rp7011
sba(iexample
Example
p7012
(dp7013
g5
Nsg6
S'22 October 1984 non-US'
p7014
sg8
Nsg9
g10
(S'\x07\xc0\n\x16'
p7015
tp7016
Rp7017
sba(iexample
Example
p7018
(dp7019
g5
Nsg6
S'4 2 79 US'
p7020
sg8
Nsg9
g10
(S'\x07\xbb\x04\x02'
p7021
tp7022
Rp7023
sba(iexample
Example
p7024
(dp7025
g5
Nsg6
S'17th June 2087 non-US'
p7026
sg8
Nsg9
g10
(S"\x08'\x06\x11"
p7027
tp7028
Rp7029
sba(iexample
Example
p7030
(dp7031
g5
Nsg6
S'21st August 2034 non-US'
p7032
sg8
Nsg9
g10
(S'\x07\xf2\x08\x15'
p7033
tp7034
Rp7035
sba(iexample
Example
p7036
(dp7037
g5
Nsg6
S'Apr the 11th 1906 US'
p7038
sg8
Nsg9
g10
(S'\x07r\x04\x0b'
p7039
tp7040
Rp7041
sba(iexample
Example
p7042
(dp7043
g5
Nsg6
S'23 Apr 2003 non-US'
p7044
sg8
Nsg9
g10
(S'\x07\xd3\x04\x17'
p7045
tp7046
Rp7047
sba(iexample
Example
p7048
(dp7049
g5
Nsg6
S'1926 03 03 non-US'
p7050
sg8
Nsg9
g10
(S'\x07\x86\x03\x03'
p7051
tp7052
Rp7053
sba(iexample
Example
p7054
(dp7055
g5
Nsg6
S'25 11 1932 non-US'
p7056
sg8
Nsg9
g10
(S'\x07\x8c\x0b\x19'
p7057
tp7058
Rp7059
sba(iexample
Example
p7060
(dp7061
g5
Nsg6
S'9 November 1913 non-US'
p7062
sg8
Nsg9
g10
(S'\x07y\x0b\t'
p7063
tp7064
Rp7065
sba(iexample
Example
p7066
(dp7067
g5
Nsg6
S'July the 28th 1903 US'
p7068
sg8
Nsg9
g10
(S'\x07o\x07\x1c'
p7069
tp7070
Rp7071
sba(iexample
Example
p7072
(dp7073
g5
Nsg6
S'Mar 2 2040 US'
p7074
sg8
Nsg9
g10
(S'\x07\xf8\x03\x02'
p7075
tp7076
Rp7077
sba(iexample
Example
p7078
(dp7079
g5
Nsg6
S'02 08 19 US'
p7080
sg8
Nsg9
g10
(S'\x07\x7f\x02\x08'
p7081
tp7082
Rp7083
sba(iexample
Example
p7084
(dp7085
g5
Nsg6
S'15 Aug 1905 non-US'
p7086
sg8
Nsg9
g10
(S'\x07q\x08\x0f'
p7087
tp7088
Rp7089
sba(iexample
Example
p7090
(dp7091
g5
Nsg6
S'8 19 09 US'
p7092
sg8
Nsg9
g10
(S'\x07u\x08\x13'
p7093
tp7094
Rp7095
sba(iexample
Example
p7096
(dp7097
g5
Nsg6
S'January 23 2097 US'
p7098
sg8
Nsg9
g10
(S'\x081\x01\x17'
p7099
tp7100
Rp7101
sba(iexample
Example
p7102
(dp7103
g5
Nsg6
S'22nd March 2006 non-US'
p7104
sg8
Nsg9
g10
(S'\x07\xd6\x03\x16'
p7105
tp7106
Rp7107
sba(iexample
Example
p7108
(dp7109
g5
Nsg6
S'Aug 23 2061 US'
p7110
sg8
Nsg9
g10
(S'\x08\r\x08\x17'
p7111
tp7112
Rp7113
sba(iexample
Example
p7114
(dp7115
g5
Nsg6
S'June the 4th 2062 US'
p7116
sg8
Nsg9
g10
(S'\x08\x0e\x06\x04'
p7117
tp7118
Rp7119
sba(iexample
Example
p7120
(dp7121
g5
Nsg6
S'April the 24th 2001 US'
p7122
sg8
Nsg9
g10
(S'\x07\xd1\x04\x18'
p7123
tp7124
Rp7125
sba(iexample
Example
p7126
(dp7127
g5
Nsg6
S'26th October 1929 non-US'
p7128
sg8
Nsg9
g10
(S'\x07\x89\n\x1a'
p7129
tp7130
Rp7131
sba(iexample
Example
p7132
(dp7133
g5
Nsg6
S'2092 02 07 non-US'
p7134
sg8
Nsg9
g10
(S'\x08,\x02\x07'
p7135
tp7136
Rp7137
sba(iexample
Example
p7138
(dp7139
g5
Nsg6
S'10 21 62 US'
p7140
sg8
Nsg9
g10
(S'\x07\xaa\n\x15'
p7141
tp7142
Rp7143
sba(iexample
Example
p7144
(dp7145
g5
Nsg6
S'4th Apr 2021 non-US'
p7146
sg8
Nsg9
g10
(S'\x07\xe5\x04\x04'
p7147
tp7148
Rp7149
sba(iexample
Example
p7150
(dp7151
g5
Nsg6
S'2033 09 10 non-US'
p7152
sg8
Nsg9
g10
(S'\x07\xf1\t\n'
p7153
tp7154
Rp7155
sba(iexample
Example
p7156
(dp7157
g5
Nsg6
S'12 9 2003 non-US'
p7158
sg8
Nsg9
g10
(S'\x07\xd3\t\x0c'
p7159
tp7160
Rp7161
sba(iexample
Example
p7162
(dp7163
g5
Nsg6
S'07 02 27 US'
p7164
sg8
Nsg9
g10
(S'\x07\x87\x07\x02'
p7165
tp7166
Rp7167
sba(iexample
Example
p7168
(dp7169
g5
Nsg6
S'20 Dec 1983 non-US'
p7170
sg8
Nsg9
g10
(S'\x07\xbf\x0c\x14'
p7171
tp7172
Rp7173
sba(iexample
Example
p7174
(dp7175
g5
Nsg6
S'1st February 1995 non-US'
p7176
sg8
Nsg9
g10
(S'\x07\xcb\x02\x01'
p7177
tp7178
Rp7179
sba(iexample
Example
p7180
(dp7181
g5
Nsg6
S'Jan the 27th 1978 US'
p7182
sg8
Nsg9
g10
(S'\x07\xba\x01\x1b'
p7183
tp7184
Rp7185
sba(iexample
Example
p7186
(dp7187
g5
Nsg6
S'06 06 71 non-US'
p7188
sg8
Nsg9
g10
(S'\x07\xb3\x06\x06'
p7189
tp7190
Rp7191
sba(iexample
Example
p7192
(dp7193
g5
Nsg6
S'Feb 27 1935 US'
p7194
sg8
Nsg9
g10
(S'\x07\x8f\x02\x1b'
p7195
tp7196
Rp7197
sba(iexample
Example
p7198
(dp7199
g5
Nsg6
S'February the 10th 1979 US'
p7200
sg8
Nsg9
g10
(S'\x07\xbb\x02\n'
p7201
tp7202
Rp7203
sba(iexample
Example
p7204
(dp7205
g5
Nsg6
S'6 29 90 US'
p7206
sg8
Nsg9
g10
(S'\x07\xc6\x06\x1d'
p7207
tp7208
Rp7209
sba(iexample
Example
p7210
(dp7211
g5
Nsg6
S'7th February 1911 non-US'
p7212
sg8
Nsg9
g10
(S'\x07w\x02\x07'
p7213
tp7214
Rp7215
sba(iexample
Example
p7216
(dp7217
g5
Nsg6
S'15th February 1903 non-US'
p7218
sg8
Nsg9
g10
(S'\x07o\x02\x0f'
p7219
tp7220
Rp7221
sba(iexample
Example
p7222
(dp7223
g5
Nsg6
S'1 May 1909 non-US'
p7224
sg8
Nsg9
g10
(S'\x07u\x05\x01'
p7225
tp7226
Rp7227
sba(iexample
Example
p7228
(dp7229
g5
Nsg6
S'19 September 1914 non-US'
p7230
sg8
Nsg9
g10
(S'\x07z\t\x13'
p7231
tp7232
Rp7233
sba(iexample
Example
p7234
(dp7235
g5
Nsg6
S'20 6 1901 non-US'
p7236
sg8
Nsg9
g10
(S'\x07m\x06\x14'
p7237
tp7238
Rp7239
sba(iexample
Example
p7240
(dp7241
g5
Nsg6
S'Nov 25 1927 US'
p7242
sg8
Nsg9
g10
(S'\x07\x87\x0b\x19'
p7243
tp7244
Rp7245
sba(iexample
Example
p7246
(dp7247
g5
Nsg6
S'25 November 1919 non-US'
p7248
sg8
Nsg9
g10
(S'\x07\x7f\x0b\x19'
p7249
tp7250
Rp7251
sba(iexample
Example
p7252
(dp7253
g5
Nsg6
S'1999 09 02 non-US'
p7254
sg8
Nsg9
g10
(S'\x07\xcf\t\x02'
p7255
tp7256
Rp7257
sba(iexample
Example
p7258
(dp7259
g5
Nsg6
S'10 04 98 non-US'
p7260
sg8
Nsg9
g10
(S'\x07\xce\x04\n'
p7261
tp7262
Rp7263
sba(iexample
Example
p7264
(dp7265
g5
Nsg6
S'Mar 29 1997 US'
p7266
sg8
Nsg9
g10
(S'\x07\xcd\x03\x1d'
p7267
tp7268
Rp7269
sba(iexample
Example
p7270
(dp7271
g5
Nsg6
S'4th February 1999 non-US'
p7272
sg8
Nsg9
g10
(S'\x07\xcf\x02\x04'
p7273
tp7274
Rp7275
sba(iexample
Example
p7276
(dp7277
g5
Nsg6
S'2093 08 02 non-US'
p7278
sg8
Nsg9
g10
(S'\x08-\x08\x02'
p7279
tp7280
Rp7281
sba(iexample
Example
p7282
(dp7283
g5
Nsg6
S'November 25 1946 US'
p7284
sg8
Nsg9
g10
(S'\x07\x9a\x0b\x19'
p7285
tp7286
Rp7287
sba(iexample
Example
p7288
(dp7289
g5
Nsg6
S'8th Jun 1960 non-US'
p7290
sg8
Nsg9
g10
(S'\x07\xa8\x06\x08'
p7291
tp7292
Rp7293
sba(iexample
Example
p7294
(dp7295
g5
Nsg6
S'September 4 1936 US'
p7296
sg8
Nsg9
g10
(S'\x07\x90\t\x04'
p7297
tp7298
Rp7299
sba(iexample
Example
p7300
(dp7301
g5
Nsg6
S'January the 16th 2029 US'
p7302
sg8
Nsg9
g10
(S'\x07\xed\x01\x10'
p7303
tp7304
Rp7305
sba(iexample
Example
p7306
(dp7307
g5
Nsg6
S'5 Feb 2063 non-US'
p7308
sg8
Nsg9
g10
(S'\x08\x0f\x02\x05'
p7309
tp7310
Rp7311
sba(iexample
Example
p7312
(dp7313
g5
Nsg6
S'19 12 1949 non-US'
p7314
sg8
Nsg9
g10
(S'\x07\x9d\x0c\x13'
p7315
tp7316
Rp7317
sba(iexample
Example
p7318
(dp7319
g5
Nsg6
S'22 December 2010 non-US'
p7320
sg8
Nsg9
g10
(S'\x07\xda\x0c\x16'
p7321
tp7322
Rp7323
sba(iexample
Example
p7324
(dp7325
g5
Nsg6
S'19th Feb 2043 non-US'
p7326
sg8
Nsg9
g10
(S'\x07\xfb\x02\x13'
p7327
tp7328
Rp7329
sba(iexample
Example
p7330
(dp7331
g5
Nsg6
S'Jul the 24th 1993 US'
p7332
sg8
Nsg9
g10
(S'\x07\xc9\x07\x18'
p7333
tp7334
Rp7335
sba(iexample
Example
p7336
(dp7337
g5
Nsg6
S'1906 09 09 non-US'
p7338
sg8
Nsg9
g10
(S'\x07r\t\t'
p7339
tp7340
Rp7341
sba(iexample
Example
p7342
(dp7343
g5
Nsg6
S'2 December 1987 non-US'
p7344
sg8
Nsg9
g10
(S'\x07\xc3\x0c\x02'
p7345
tp7346
Rp7347
sba(iexample
Example
p7348
(dp7349
g5
Nsg6
S'Oct the 1st 2065 US'
p7350
sg8
Nsg9
g10
(S'\x08\x11\n\x01'
p7351
tp7352
Rp7353
sba(iexample
Example
p7354
(dp7355
g5
Nsg6
S'2081 06 08 non-US'
p7356
sg8
Nsg9
g10
(S'\x08!\x06\x08'
p7357
tp7358
Rp7359
sba(iexample
Example
p7360
(dp7361
g5
Nsg6
S'22nd April 2076 non-US'
p7362
sg8
Nsg9
g10
(S'\x08\x1c\x04\x16'
p7363
tp7364
Rp7365
sba(iexample
Example
p7366
(dp7367
g5
Nsg6
S'06 09 72 non-US'
p7368
sg8
Nsg9
g10
(S'\x07\xb4\t\x06'
p7369
tp7370
Rp7371
sba(iexample
Example
p7372
(dp7373
g5
Nsg6
S'2008 07 05 non-US'
p7374
sg8
Nsg9
g10
(S'\x07\xd8\x07\x05'
p7375
tp7376
Rp7377
sba(iexample
Example
p7378
(dp7379
g5
Nsg6
S'03 06 57 non-US'
p7380
sg8
Nsg9
g10
(S'\x07\xa5\x06\x03'
p7381
tp7382
Rp7383
sba(iexample
Example
p7384
(dp7385
g5
Nsg6
S'04 06 2046 US'
p7386
sg8
Nsg9
g10
(S'\x07\xfe\x04\x06'
p7387
tp7388
Rp7389
sba(iexample
Example
p7390
(dp7391
g5
Nsg6
S'Apr 29 1919 US'
p7392
sg8
Nsg9
g10
(S'\x07\x7f\x04\x1d'
p7393
tp7394
Rp7395
sba(iexample
Example
p7396
(dp7397
g5
Nsg6
S'Mar 16 1974 US'
p7398
sg8
Nsg9
g10
(S'\x07\xb6\x03\x10'
p7399
tp7400
Rp7401
sba(iexample
Example
p7402
(dp7403
g5
Nsg6
S'Aug the 1st 1901 US'
p7404
sg8
Nsg9
g10
(S'\x07m\x08\x01'
p7405
tp7406
Rp7407
sba(iexample
Example
p7408
(dp7409
g5
Nsg6
S'1981 02 01 non-US'
p7410
sg8
Nsg9
g10
(S'\x07\xbd\x02\x01'
p7411
tp7412
Rp7413
sba(iexample
Example
p7414
(dp7415
g5
Nsg6
S'12 January 1910 non-US'
p7416
sg8
Nsg9
g10
(S'\x07v\x01\x0c'
p7417
tp7418
Rp7419
sba(iexample
Example
p7420
(dp7421
g5
Nsg6
S'1995 03 06 non-US'
p7422
sg8
Nsg9
g10
(S'\x07\xcb\x03\x06'
p7423
tp7424
Rp7425
sba(iexample
Example
p7426
(dp7427
g5
Nsg6
S'Aug 12 2021 US'
p7428
sg8
Nsg9
g10
(S'\x07\xe5\x08\x0c'
p7429
tp7430
Rp7431
sba(iexample
Example
p7432
(dp7433
g5
Nsg6
S'14 1 64 non-US'
p7434
sg8
Nsg9
g10
(S'\x07\xac\x01\x0e'
p7435
tp7436
Rp7437
sba(iexample
Example
p7438
(dp7439
g5
Nsg6
S'1977 03 06 non-US'
p7440
sg8
Nsg9
g10
(S'\x07\xb9\x03\x06'
p7441
tp7442
Rp7443
sba(iexample
Example
p7444
(dp7445
g5
Nsg6
S'07 04 1952 US'
p7446
sg8
Nsg9
g10
(S'\x07\xa0\x07\x04'
p7447
tp7448
Rp7449
sba(iexample
Example
p7450
(dp7451
g5
Nsg6
S'2023 03 09 non-US'
p7452
sg8
Nsg9
g10
(S'\x07\xe7\x03\t'
p7453
tp7454
Rp7455
sba(iexample
Example
p7456
(dp7457
g5
Nsg6
S'1999 06 04 non-US'
p7458
sg8
Nsg9
g10
(S'\x07\xcf\x06\x04'
p7459
tp7460
Rp7461
sba(iexample
Example
p7462
(dp7463
g5
Nsg6
S'May the 7th 2033 US'
p7464
sg8
Nsg9
g10
(S'\x07\xf1\x05\x07'
p7465
tp7466
Rp7467
sba(iexample
Example
p7468
(dp7469
g5
Nsg6
S'1972 01 10 non-US'
p7470
sg8
Nsg9
g10
(S'\x07\xb4\x01\n'
p7471
tp7472
Rp7473
sba(iexample
Example
p7474
(dp7475
g5
Nsg6
S'October 15 1937 US'
p7476
sg8
Nsg9
g10
(S'\x07\x91\n\x0f'
p7477
tp7478
Rp7479
sba(iexample
Example
p7480
(dp7481
g5
Nsg6
S'April the 14th 1934 US'
p7482
sg8
Nsg9
g10
(S'\x07\x8e\x04\x0e'
p7483
tp7484
Rp7485
sba(iexample
Example
p7486
(dp7487
g5
Nsg6
S'August 17 2061 US'
p7488
sg8
Nsg9
g10
(S'\x08\r\x08\x11'
p7489
tp7490
Rp7491
sba(iexample
Example
p7492
(dp7493
g5
Nsg6
S'9 Mar 2056 non-US'
p7494
sg8
Nsg9
g10
(S'\x08\x08\x03\t'
p7495
tp7496
Rp7497
sba(iexample
Example
p7498
(dp7499
g5
Nsg6
S'11 3 23 non-US'
p7500
sg8
Nsg9
g10
(S'\x07\x83\x03\x0b'
p7501
tp7502
Rp7503
sba(iexample
Example
p7504
(dp7505
g5
Nsg6
S'29th Mar 2035 non-US'
p7506
sg8
Nsg9
g10
(S'\x07\xf3\x03\x1d'
p7507
tp7508
Rp7509
sba(iexample
Example
p7510
(dp7511
g5
Nsg6
S'Jul 18 2060 US'
p7512
sg8
Nsg9
g10
(S'\x08\x0c\x07\x12'
p7513
tp7514
Rp7515
sba(iexample
Example
p7516
(dp7517
g5
Nsg6
S'26 8 1917 non-US'
p7518
sg8
Nsg9
g10
(S'\x07}\x08\x1a'
p7519
tp7520
Rp7521
sba(iexample
Example
p7522
(dp7523
g5
Nsg6
S'10 20 75 US'
p7524
sg8
Nsg9
g10
(S'\x07\xb7\n\x14'
p7525
tp7526
Rp7527
sba(iexample
Example
p7528
(dp7529
g5
Nsg6
S'3rd Jul 1996 non-US'
p7530
sg8
Nsg9
g10
(S'\x07\xcc\x07\x03'
p7531
tp7532
Rp7533
sba(iexample
Example
p7534
(dp7535
g5
Nsg6
S'16 Apr 1957 non-US'
p7536
sg8
Nsg9
g10
(S'\x07\xa5\x04\x10'
p7537
tp7538
Rp7539
sba(iexample
Example
p7540
(dp7541
g5
Nsg6
S'Sep 16 1901 US'
p7542
sg8
Nsg9
g10
(S'\x07m\t\x10'
p7543
tp7544
Rp7545
sba(iexample
Example
p7546
(dp7547
g5
Nsg6
S'8 31 2078 US'
p7548
sg8
Nsg9
g10
(S'\x08\x1e\x08\x1f'
p7549
tp7550
Rp7551
sba(iexample
Example
p7552
(dp7553
g5
Nsg6
S'20th Jun 2019 non-US'
p7554
sg8
Nsg9
g10
(S'\x07\xe3\x06\x14'
p7555
tp7556
Rp7557
sba(iexample
Example
p7558
(dp7559
g5
Nsg6
S'August 6 2078 US'
p7560
sg8
Nsg9
g10
(S'\x08\x1e\x08\x06'
p7561
tp7562
Rp7563
sba(iexample
Example
p7564
(dp7565
g5
Nsg6
S'24 Sep 1985 non-US'
p7566
sg8
Nsg9
g10
(S'\x07\xc1\t\x18'
p7567
tp7568
Rp7569
sba(iexample
Example
p7570
(dp7571
g5
Nsg6
S'December 29 1930 US'
p7572
sg8
Nsg9
g10
(S'\x07\x8a\x0c\x1d'
p7573
tp7574
Rp7575
sba(iexample
Example
p7576
(dp7577
g5
Nsg6
S'Jul 7 1918 US'
p7578
sg8
Nsg9
g10
(S'\x07~\x07\x07'
p7579
tp7580
Rp7581
sba(iexample
Example
p7582
(dp7583
g5
Nsg6
S'7 November 1934 non-US'
p7584
sg8
Nsg9
g10
(S'\x07\x8e\x0b\x07'
p7585
tp7586
Rp7587
sba(iexample
Example
p7588
(dp7589
g5
Nsg6
S'3 February 1956 non-US'
p7590
sg8
Nsg9
g10
(S'\x07\xa4\x02\x03'
p7591
tp7592
Rp7593
sba(iexample
Example
p7594
(dp7595
g5
Nsg6
S'Nov the 10th 2013 US'
p7596
sg8
Nsg9
g10
(S'\x07\xdd\x0b\n'
p7597
tp7598
Rp7599
sba(iexample
Example
p7600
(dp7601
g5
Nsg6
S'25 Feb 1996 non-US'
p7602
sg8
Nsg9
g10
(S'\x07\xcc\x02\x19'
p7603
tp7604
Rp7605
sba(iexample
Example
p7606
(dp7607
g5
Nsg6
S'Dec 24 2038 US'
p7608
sg8
Nsg9
g10
(S'\x07\xf6\x0c\x18'
p7609
tp7610
Rp7611
sba(iexample
Example
p7612
(dp7613
g5
Nsg6
S'Aug 4 2080 US'
p7614
sg8
Nsg9
g10
(S'\x08 \x08\x04'
p7615
tp7616
Rp7617
sba(iexample
Example
p7618
(dp7619
g5
Nsg6
S'12th January 2062 non-US'
p7620
sg8
Nsg9
g10
(S'\x08\x0e\x01\x0c'
p7621
tp7622
Rp7623
sba(iexample
Example
p7624
(dp7625
g5
Nsg6
S'01 04 31 non-US'
p7626
sg8
Nsg9
g10
(S'\x07\x8b\x04\x01'
p7627
tp7628
Rp7629
sba(iexample
Example
p7630
(dp7631
g5
Nsg6
S'Jul 28 2090 US'
p7632
sg8
Nsg9
g10
(S'\x08*\x07\x1c'
p7633
tp7634
Rp7635
sba(iexample
Example
p7636
(dp7637
g5
Nsg6
S'15th Feb 2019 non-US'
p7638
sg8
Nsg9
g10
(S'\x07\xe3\x02\x0f'
p7639
tp7640
Rp7641
sba(iexample
Example
p7642
(dp7643
g5
Nsg6
S'March 15 2076 US'
p7644
sg8
Nsg9
g10
(S'\x08\x1c\x03\x0f'
p7645
tp7646
Rp7647
sba(iexample
Example
p7648
(dp7649
g5
Nsg6
S'1961 09 10 non-US'
p7650
sg8
Nsg9
g10
(S'\x07\xa9\t\n'
p7651
tp7652
Rp7653
sba(iexample
Example
p7654
(dp7655
g5
Nsg6
S'6 19 95 US'
p7656
sg8
Nsg9
g10
(S'\x07\xcb\x06\x13'
p7657
tp7658
Rp7659
sba(iexample
Example
p7660
(dp7661
g5
Nsg6
S'1949 05 01 non-US'
p7662
sg8
Nsg9
g10
(S'\x07\x9d\x05\x01'
p7663
tp7664
Rp7665
sba(iexample
Example
p7666
(dp7667
g5
Nsg6
S'November 7 1919 US'
p7668
sg8
Nsg9
g10
(S'\x07\x7f\x0b\x07'
p7669
tp7670
Rp7671
sba(iexample
Example
p7672
(dp7673
g5
Nsg6
S'1936 07 07 non-US'
p7674
sg8
Nsg9
g10
(S'\x07\x90\x07\x07'
p7675
tp7676
Rp7677
sba(iexample
Example
p7678
(dp7679
g5
Nsg6
S'Jan 21 2080 US'
p7680
sg8
Nsg9
g10
(S'\x08 \x01\x15'
p7681
tp7682
Rp7683
sba(iexample
Example
p7684
(dp7685
g5
Nsg6
S'7 19 86 US'
p7686
sg8
Nsg9
g10
(S'\x07\xc2\x07\x13'
p7687
tp7688
Rp7689
sba(iexample
Example
p7690
(dp7691
g5
Nsg6
S'January the 6th 1933 US'
p7692
sg8
Nsg9
g10
(S'\x07\x8d\x01\x06'
p7693
tp7694
Rp7695
sba(iexample
Example
p7696
(dp7697
g5
Nsg6
S'05 05 1907 US'
p7698
sg8
Nsg9
g10
(S'\x07s\x05\x05'
p7699
tp7700
Rp7701
sba(iexample
Example
p7702
(dp7703
g5
Nsg6
S'21st Dec 1982 non-US'
p7704
sg8
Nsg9
g10
(S'\x07\xbe\x0c\x15'
p7705
tp7706
Rp7707
sba(iexample
Example
p7708
(dp7709
g5
Nsg6
S'2nd Oct 1966 non-US'
p7710
sg8
Nsg9
g10
(S'\x07\xae\n\x02'
p7711
tp7712
Rp7713
sba(iexample
Example
p7714
(dp7715
g5
Nsg6
S'Nov the 15th 1954 US'
p7716
sg8
Nsg9
g10
(S'\x07\xa2\x0b\x0f'
p7717
tp7718
Rp7719
sba(iexample
Example
p7720
(dp7721
g5
Nsg6
S'1944 02 09 non-US'
p7722
sg8
Nsg9
g10
(S'\x07\x98\x02\t'
p7723
tp7724
Rp7725
sba(iexample
Example
p7726
(dp7727
g5
Nsg6
S'June 26 1981 US'
p7728
sg8
Nsg9
g10
(S'\x07\xbd\x06\x1a'
p7729
tp7730
Rp7731
sba(iexample
Example
p7732
(dp7733
g5
Nsg6
S'1944 02 01 non-US'
p7734
sg8
Nsg9
g10
(S'\x07\x98\x02\x01'
p7735
tp7736
Rp7737
sba(iexample
Example
p7738
(dp7739
g5
Nsg6
S'October the 25th 1960 US'
p7740
sg8
Nsg9
g10
(S'\x07\xa8\n\x19'
p7741
tp7742
Rp7743
sba(iexample
Example
p7744
(dp7745
g5
Nsg6
S'2012 05 04 non-US'
p7746
sg8
Nsg9
g10
(S'\x07\xdc\x05\x04'
p7747
tp7748
Rp7749
sba(iexample
Example
p7750
(dp7751
g5
Nsg6
S'2012 05 05 non-US'
p7752
sg8
Nsg9
g10
(S'\x07\xdc\x05\x05'
p7753
tp7754
Rp7755
sba(iexample
Example
p7756
(dp7757
g5
Nsg6
S'Feb the 20th 2079 US'
p7758
sg8
Nsg9
g10
(S'\x08\x1f\x02\x14'
p7759
tp7760
Rp7761
sba(iexample
Example
p7762
(dp7763
g5
Nsg6
S'13 May 2093 non-US'
p7764
sg8
Nsg9
g10
(S'\x08-\x05\r'
p7765
tp7766
Rp7767
sba(iexample
Example
p7768
(dp7769
g5
Nsg6
S'3 5 2073 non-US'
p7770
sg8
Nsg9
g10
(S'\x08\x19\x05\x03'
p7771
tp7772
Rp7773
sba(iexample
Example
p7774
(dp7775
g5
Nsg6
S'15 Jan 1931 non-US'
p7776
sg8
Nsg9
g10
(S'\x07\x8b\x01\x0f'
p7777
tp7778
Rp7779
sba(iexample
Example
p7780
(dp7781
g5
Nsg6
S'8 Jan 1989 non-US'
p7782
sg8
Nsg9
g10
(S'\x07\xc5\x01\x08'
p7783
tp7784
Rp7785
sba(iexample
Example
p7786
(dp7787
g5
Nsg6
S'07 04 86 non-US'
p7788
sg8
Nsg9
g10
(S'\x07\xc2\x04\x07'
p7789
tp7790
Rp7791
sba(iexample
Example
p7792
(dp7793
g5
Nsg6
S'02 05 1925 non-US'
p7794
sg8
Nsg9
g10
(S'\x07\x85\x05\x02'
p7795
tp7796
Rp7797
sba(iexample
Example
p7798
(dp7799
g5
Nsg6
S'Aug the 3rd 1951 US'
p7800
sg8
Nsg9
g10
(S'\x07\x9f\x08\x03'
p7801
tp7802
Rp7803
sba(iexample
Example
p7804
(dp7805
g5
Nsg6
S'2nd October 2014 non-US'
p7806
sg8
Nsg9
g10
(S'\x07\xde\n\x02'
p7807
tp7808
Rp7809
sba(iexample
Example
p7810
(dp7811
g5
Nsg6
S'08 01 2032 US'
p7812
sg8
Nsg9
g10
(S'\x07\xf0\x08\x01'
p7813
tp7814
Rp7815
sba(iexample
Example
p7816
(dp7817
g5
Nsg6
S'Sep 4 1945 US'
p7818
sg8
Nsg9
g10
(S'\x07\x99\t\x04'
p7819
tp7820
Rp7821
sba(iexample
Example
p7822
(dp7823
g5
Nsg6
S'24th May 1926 non-US'
p7824
sg8
Nsg9
g10
(S'\x07\x86\x05\x18'
p7825
tp7826
Rp7827
sba(iexample
Example
p7828
(dp7829
g5
Nsg6
S'Jul the 28th 1971 US'
p7830
sg8
Nsg9
g10
(S'\x07\xb3\x07\x1c'
p7831
tp7832
Rp7833
sba(iexample
Example
p7834
(dp7835
g5
Nsg6
S'9th March 1945 non-US'
p7836
sg8
Nsg9
g10
(S'\x07\x99\x03\t'
p7837
tp7838
Rp7839
sba(iexample
Example
p7840
(dp7841
g5
Nsg6
S'2045 08 10 US'
p7842
sg8
Nsg9
g10
(S'\x07\xfd\x08\n'
p7843
tp7844
Rp7845
sba(iexample
Example
p7846
(dp7847
g5
Nsg6
S'2021 01 05 non-US'
p7848
sg8
Nsg9
g10
(S'\x07\xe5\x01\x05'
p7849
tp7850
Rp7851
sba(iexample
Example
p7852
(dp7853
g5
Nsg6
S'Sep the 22nd 2063 US'
p7854
sg8
Nsg9
g10
(S'\x08\x0f\t\x16'
p7855
tp7856
Rp7857
sba(iexample
Example
p7858
(dp7859
g5
Nsg6
S'December 8 2070 US'
p7860
sg8
Nsg9
g10
(S'\x08\x16\x0c\x08'
p7861
tp7862
Rp7863
sba(iexample
Example
p7864
(dp7865
g5
Nsg6
S'13 March 1989 non-US'
p7866
sg8
Nsg9
g10
(S'\x07\xc5\x03\r'
p7867
tp7868
Rp7869
sba(iexample
Example
p7870
(dp7871
g5
Nsg6
S'December 8 2074 US'
p7872
sg8
Nsg9
g10
(S'\x08\x1a\x0c\x08'
p7873
tp7874
Rp7875
sba(iexample
Example
p7876
(dp7877
g5
Nsg6
S'November 25 1937 US'
p7878
sg8
Nsg9
g10
(S'\x07\x91\x0b\x19'
p7879
tp7880
Rp7881
sba(iexample
Example
p7882
(dp7883
g5
Nsg6
S'1981 01 04 non-US'
p7884
sg8
Nsg9
g10
(S'\x07\xbd\x01\x04'
p7885
tp7886
Rp7887
sba(iexample
Example
p7888
(dp7889
g5
Nsg6
S'2045 04 08 non-US'
p7890
sg8
Nsg9
g10
(S'\x07\xfd\x04\x08'
p7891
tp7892
Rp7893
sba(iexample
Example
p7894
(dp7895
g5
Nsg6
S'09 07 2038 US'
p7896
sg8
Nsg9
g10
(S'\x07\xf6\t\x07'
p7897
tp7898
Rp7899
sba(iexample
Example
p7900
(dp7901
g5
Nsg6
S'05 03 2083 non-US'
p7902
sg8
Nsg9
g10
(S'\x08#\x03\x05'
p7903
tp7904
Rp7905
sba(iexample
Example
p7906
(dp7907
g5
Nsg6
S'10 10 1913 US'
p7908
sg8
Nsg9
g10
(S'\x07y\n\n'
p7909
tp7910
Rp7911
sba(iexample
Example
p7912
(dp7913
g5
Nsg6
S'12 15 04 US'
p7914
sg8
Nsg9
g10
(S'\x07p\x0c\x0f'
p7915
tp7916
Rp7917
sba(iexample
Example
p7918
(dp7919
g5
Nsg6
S'1957 03 08 non-US'
p7920
sg8
Nsg9
g10
(S'\x07\xa5\x03\x08'
p7921
tp7922
Rp7923
sba(iexample
Example
p7924
(dp7925
g5
Nsg6
S'02 05 65 non-US'
p7926
sg8
Nsg9
g10
(S'\x07\xad\x05\x02'
p7927
tp7928
Rp7929
sba(iexample
Example
p7930
(dp7931
g5
Nsg6
S'November the 30th 1964 US'
p7932
sg8
Nsg9
g10
(S'\x07\xac\x0b\x1e'
p7933
tp7934
Rp7935
sba(iexample
Example
p7936
(dp7937
g5
Nsg6
S'2005 05 09 non-US'
p7938
sg8
Nsg9
g10
(S'\x07\xd5\x05\t'
p7939
tp7940
Rp7941
sba(iexample
Example
p7942
(dp7943
g5
Nsg6
S'02 02 05 US'
p7944
sg8
Nsg9
g10
(S'\x07q\x02\x02'
p7945
tp7946
Rp7947
sba(iexample
Example
p7948
(dp7949
g5
Nsg6
S'2 7 98 non-US'
p7950
sg8
Nsg9
g10
(S'\x07\xce\x07\x02'
p7951
tp7952
Rp7953
sba(iexample
Example
p7954
(dp7955
g5
Nsg6
S'21st Apr 1911 non-US'
p7956
sg8
Nsg9
g10
(S'\x07w\x04\x15'
p7957
tp7958
Rp7959
sba(iexample
Example
p7960
(dp7961
g5
Nsg6
S'18 10 58 non-US'
p7962
sg8
Nsg9
g10
(S'\x07\xa6\n\x12'
p7963
tp7964
Rp7965
sba(iexample
Example
p7966
(dp7967
g5
Nsg6
S'September 23 2091 US'
p7968
sg8
Nsg9
g10
(S'\x08+\t\x17'
p7969
tp7970
Rp7971
sba(iexample
Example
p7972
(dp7973
g5
Nsg6
S'4 12 2031 non-US'
p7974
sg8
Nsg9
g10
(S'\x07\xef\x0c\x04'
p7975
tp7976
Rp7977
sba(iexample
Example
p7978
(dp7979
g5
Nsg6
S'3 Dec 2026 non-US'
p7980
sg8
Nsg9
g10
(S'\x07\xea\x0c\x03'
p7981
tp7982
Rp7983
sba(iexample
Example
p7984
(dp7985
g5
Nsg6
S'30 May 2093 non-US'
p7986
sg8
Nsg9
g10
(S'\x08-\x05\x1e'
p7987
tp7988
Rp7989
sba(iexample
Example
p7990
(dp7991
g5
Nsg6
S'30 May 1948 non-US'
p7992
sg8
Nsg9
g10
(S'\x07\x9c\x05\x1e'
p7993
tp7994
Rp7995
sba(iexample
Example
p7996
(dp7997
g5
Nsg6
S'January the 24th 1918 US'
p7998
sg8
Nsg9
g10
(S'\x07~\x01\x18'
p7999
tp8000
Rp8001
sba(iexample
Example
p8002
(dp8003
g5
Nsg6
S'2011 01 09 non-US'
p8004
sg8
Nsg9
g10
(S'\x07\xdb\x01\t'
p8005
tp8006
Rp8007
sba(iexample
Example
p8008
(dp8009
g5
Nsg6
S'Aug the 25th 2010 US'
p8010
sg8
Nsg9
g10
(S'\x07\xda\x08\x19'
p8011
tp8012
Rp8013
sba(iexample
Example
p8014
(dp8015
g5
Nsg6
S'15 Feb 1976 non-US'
p8016
sg8
Nsg9
g10
(S'\x07\xb8\x02\x0f'
p8017
tp8018
Rp8019
sba(iexample
Example
p8020
(dp8021
g5
Nsg6
S'May 10 2091 US'
p8022
sg8
Nsg9
g10
(S'\x08+\x05\n'
p8023
tp8024
Rp8025
sba(iexample
Example
p8026
(dp8027
g5
Nsg6
S'7 June 2097 non-US'
p8028
sg8
Nsg9
g10
(S'\x081\x06\x07'
p8029
tp8030
Rp8031
sba(iexample
Example
p8032
(dp8033
g5
Nsg6
S'10 05 1979 non-US'
p8034
sg8
Nsg9
g10
(S'\x07\xbb\x05\n'
p8035
tp8036
Rp8037
sba(iexample
Example
p8038
(dp8039
g5
Nsg6
S'10th September 2055 non-US'
p8040
sg8
Nsg9
g10
(S'\x08\x07\t\n'
p8041
tp8042
Rp8043
sba(iexample
Example
p8044
(dp8045
g5
Nsg6
S'September the 13th 2042 US'
p8046
sg8
Nsg9
g10
(S'\x07\xfa\t\r'
p8047
tp8048
Rp8049
sba(iexample
Example
p8050
(dp8051
g5
Nsg6
S'Jun 23 2058 US'
p8052
sg8
Nsg9
g10
(S'\x08\n\x06\x17'
p8053
tp8054
Rp8055
sba(iexample
Example
p8056
(dp8057
g5
Nsg6
S'17th May 2011 non-US'
p8058
sg8
Nsg9
g10
(S'\x07\xdb\x05\x11'
p8059
tp8060
Rp8061
sba(iexample
Example
p8062
(dp8063
g5
Nsg6
S'6th January 2093 non-US'
p8064
sg8
Nsg9
g10
(S'\x08-\x01\x06'
p8065
tp8066
Rp8067
sba(iexample
Example
p8068
(dp8069
g5
Nsg6
S'Feb 20 2043 US'
p8070
sg8
Nsg9
g10
(S'\x07\xfb\x02\x14'
p8071
tp8072
Rp8073
sba(iexample
Example
p8074
(dp8075
g5
Nsg6
S'December 26 2078 US'
p8076
sg8
Nsg9
g10
(S'\x08\x1e\x0c\x1a'
p8077
tp8078
Rp8079
sba(iexample
Example
p8080
(dp8081
g5
Nsg6
S'12 Nov 1982 non-US'
p8082
sg8
Nsg9
g10
(S'\x07\xbe\x0b\x0c'
p8083
tp8084
Rp8085
sba(iexample
Example
p8086
(dp8087
g5
Nsg6
S'Dec 28 1902 US'
p8088
sg8
Nsg9
g10
(S'\x07n\x0c\x1c'
p8089
tp8090
Rp8091
sba(iexample
Example
p8092
(dp8093
g5
Nsg6
S'1992 02 09 non-US'
p8094
sg8
Nsg9
g10
(S'\x07\xc8\x02\t'
p8095
tp8096
Rp8097
sba(iexample
Example
p8098
(dp8099
g5
Nsg6
S'October the 15th 1923 US'
p8100
sg8
Nsg9
g10
(S'\x07\x83\n\x0f'
p8101
tp8102
Rp8103
sba(iexample
Example
p8104
(dp8105
g5
Nsg6
S'1 18 2090 US'
p8106
sg8
Nsg9
g10
(S'\x08*\x01\x12'
p8107
tp8108
Rp8109
sba(iexample
Example
p8110
(dp8111
g5
Nsg6
S'February 19 2073 US'
p8112
sg8
Nsg9
g10
(S'\x08\x19\x02\x13'
p8113
tp8114
Rp8115
sba(iexample
Example
p8116
(dp8117
g5
Nsg6
S'02 07 2025 US'
p8118
sg8
Nsg9
g10
(S'\x07\xe9\x02\x07'
p8119
tp8120
Rp8121
sba(iexample
Example
p8122
(dp8123
g5
Nsg6
S'7 4 2024 US'
p8124
sg8
Nsg9
g10
(S'\x07\xe8\x07\x04'
p8125
tp8126
Rp8127
sba(iexample
Example
p8128
(dp8129
g5
Nsg6
S'28th September 2005 non-US'
p8130
sg8
Nsg9
g10
(S'\x07\xd5\t\x1c'
p8131
tp8132
Rp8133
sba(iexample
Example
p8134
(dp8135
g5
Nsg6
S'July the 9th 2090 US'
p8136
sg8
Nsg9
g10
(S'\x08*\x07\t'
p8137
tp8138
Rp8139
sba(iexample
Example
p8140
(dp8141
g5
Nsg6
S'5 25 1935 US'
p8142
sg8
Nsg9
g10
(S'\x07\x8f\x05\x19'
p8143
tp8144
Rp8145
sba(iexample
Example
p8146
(dp8147
g5
Nsg6
S'07 04 07 US'
p8148
sg8
Nsg9
g10
(S'\x07s\x07\x04'
p8149
tp8150
Rp8151
sba(iexample
Example
p8152
(dp8153
g5
Nsg6
S'01 01 13 US'
p8154
sg8
Nsg9
g10
(S'\x07y\x01\x01'
p8155
tp8156
Rp8157
sba(iexample
Example
p8158
(dp8159
g5
Nsg6
S'25 June 2053 non-US'
p8160
sg8
Nsg9
g10
(S'\x08\x05\x06\x19'
p8161
tp8162
Rp8163
sba(iexample
Example
p8164
(dp8165
g5
Nsg6
S'22nd September 1964 non-US'
p8166
sg8
Nsg9
g10
(S'\x07\xac\t\x16'
p8167
tp8168
Rp8169
sba(iexample
Example
p8170
(dp8171
g5
Nsg6
S'07 04 1944 non-US'
p8172
sg8
Nsg9
g10
(S'\x07\x98\x04\x07'
p8173
tp8174
Rp8175
sba(iexample
Example
p8176
(dp8177
g5
Nsg6
S'23 February 1904 non-US'
p8178
sg8
Nsg9
g10
(S'\x07p\x02\x17'
p8179
tp8180
Rp8181
sba(iexample
Example
p8182
(dp8183
g5
Nsg6
S'16 October 1999 non-US'
p8184
sg8
Nsg9
g10
(S'\x07\xcf\n\x10'
p8185
tp8186
Rp8187
sba(iexample
Example
p8188
(dp8189
g5
Nsg6
S'9th June 1918 non-US'
p8190
sg8
Nsg9
g10
(S'\x07~\x06\t'
p8191
tp8192
Rp8193
sba(iexample
Example
p8194
(dp8195
g5
Nsg6
S'26 Dec 1994 non-US'
p8196
sg8
Nsg9
g10
(S'\x07\xca\x0c\x1a'
p8197
tp8198
Rp8199
sba(iexample
Example
p8200
(dp8201
g5
Nsg6
S'Feb the 10th 2088 US'
p8202
sg8
Nsg9
g10
(S'\x08(\x02\n'
p8203
tp8204
Rp8205
sba(iexample
Example
p8206
(dp8207
g5
Nsg6
S'May the 5th 1975 US'
p8208
sg8
Nsg9
g10
(S'\x07\xb7\x05\x05'
p8209
tp8210
Rp8211
sba(iexample
Example
p8212
(dp8213
g5
Nsg6
S'28th January 2091 non-US'
p8214
sg8
Nsg9
g10
(S'\x08+\x01\x1c'
p8215
tp8216
Rp8217
sba(iexample
Example
p8218
(dp8219
g5
Nsg6
S'06 08 51 non-US'
p8220
sg8
Nsg9
g10
(S'\x07\x9f\x08\x06'
p8221
tp8222
Rp8223
sba(iexample
Example
p8224
(dp8225
g5
Nsg6
S'June 13 2068 US'
p8226
sg8
Nsg9
g10
(S'\x08\x14\x06\r'
p8227
tp8228
Rp8229
sba(iexample
Example
p8230
(dp8231
g5
Nsg6
S'12th Jan 2096 non-US'
p8232
sg8
Nsg9
g10
(S'\x080\x01\x0c'
p8233
tp8234
Rp8235
sba(iexample
Example
p8236
(dp8237
g5
Nsg6
S'9 June 1951 non-US'
p8238
sg8
Nsg9
g10
(S'\x07\x9f\x06\t'
p8239
tp8240
Rp8241
sba(iexample
Example
p8242
(dp8243
g5
Nsg6
S'28th Oct 1949 non-US'
p8244
sg8
Nsg9
g10
(S'\x07\x9d\n\x1c'
p8245
tp8246
Rp8247
sba(iexample
Example
p8248
(dp8249
g5
Nsg6
S'23rd Jul 1932 non-US'
p8250
sg8
Nsg9
g10
(S'\x07\x8c\x07\x17'
p8251
tp8252
Rp8253
sba(iexample
Example
p8254
(dp8255
g5
Nsg6
S'4th Dec 1956 non-US'
p8256
sg8
Nsg9
g10
(S'\x07\xa4\x0c\x04'
p8257
tp8258
Rp8259
sba(iexample
Example
p8260
(dp8261
g5
Nsg6
S'03 03 1966 US'
p8262
sg8
Nsg9
g10
(S'\x07\xae\x03\x03'
p8263
tp8264
Rp8265
sba(iexample
Example
p8266
(dp8267
g5
Nsg6
S'21 3 88 non-US'
p8268
sg8
Nsg9
g10
(S'\x07\xc4\x03\x15'
p8269
tp8270
Rp8271
sba(iexample
Example
p8272
(dp8273
g5
Nsg6
S'07 01 2030 non-US'
p8274
sg8
Nsg9
g10
(S'\x07\xee\x01\x07'
p8275
tp8276
Rp8277
sba(iexample
Example
p8278
(dp8279
g5
Nsg6
S'2nd Apr 1992 non-US'
p8280
sg8
Nsg9
g10
(S'\x07\xc8\x04\x02'
p8281
tp8282
Rp8283
sba(iexample
Example
p8284
(dp8285
g5
Nsg6
S'04 06 86 US'
p8286
sg8
Nsg9
g10
(S'\x07\xc2\x04\x06'
p8287
tp8288
Rp8289
sba(iexample
Example
p8290
(dp8291
g5
Nsg6
S'29th May 1961 non-US'
p8292
sg8
Nsg9
g10
(S'\x07\xa9\x05\x1d'
p8293
tp8294
Rp8295
sba(iexample
Example
p8296
(dp8297
g5
Nsg6
S'27 Oct 2076 non-US'
p8298
sg8
Nsg9
g10
(S'\x08\x1c\n\x1b'
p8299
tp8300
Rp8301
sba(iexample
Example
p8302
(dp8303
g5
Nsg6
S'06 09 2058 non-US'
p8304
sg8
Nsg9
g10
(S'\x08\n\t\x06'
p8305
tp8306
Rp8307
sba(iexample
Example
p8308
(dp8309
g5
Nsg6
S'09 08 52 US'
p8310
sg8
Nsg9
g10
(S'\x07\xa0\t\x08'
p8311
tp8312
Rp8313
sba(iexample
Example
p8314
(dp8315
g5
Nsg6
S'Mar the 10th 2076 US'
p8316
sg8
Nsg9
g10
(S'\x08\x1c\x03\n'
p8317
tp8318
Rp8319
sba(iexample
Example
p8320
(dp8321
g5
Nsg6
S'15th Feb 1928 non-US'
p8322
sg8
Nsg9
g10
(S'\x07\x88\x02\x0f'
p8323
tp8324
Rp8325
sba(iexample
Example
p8326
(dp8327
g5
Nsg6
S'1940 01 04 non-US'
p8328
sg8
Nsg9
g10
(S'\x07\x94\x01\x04'
p8329
tp8330
Rp8331
sba(iexample
Example
p8332
(dp8333
g5
Nsg6
S'11 1 1975 US'
p8334
sg8
Nsg9
g10
(S'\x07\xb7\x0b\x01'
p8335
tp8336
Rp8337
sba(iexample
Example
p8338
(dp8339
g5
Nsg6
S'January 11 2097 US'
p8340
sg8
Nsg9
g10
(S'\x081\x01\x0b'
p8341
tp8342
Rp8343
sba(iexample
Example
p8344
(dp8345
g5
Nsg6
S'30 Oct 2040 non-US'
p8346
sg8
Nsg9
g10
(S'\x07\xf8\n\x1e'
p8347
tp8348
Rp8349
sba(iexample
Example
p8350
(dp8351
g5
Nsg6
S'March the 6th 1998 US'
p8352
sg8
Nsg9
g10
(S'\x07\xce\x03\x06'
p8353
tp8354
Rp8355
sba(iexample
Example
p8356
(dp8357
g5
Nsg6
S'15 January 1934 non-US'
p8358
sg8
Nsg9
g10
(S'\x07\x8e\x01\x0f'
p8359
tp8360
Rp8361
sba(iexample
Example
p8362
(dp8363
g5
Nsg6
S'1964 08 04 non-US'
p8364
sg8
Nsg9
g10
(S'\x07\xac\x08\x04'
p8365
tp8366
Rp8367
sba(iexample
Example
p8368
(dp8369
g5
Nsg6
S'2023 07 04 non-US'
p8370
sg8
Nsg9
g10
(S'\x07\xe7\x07\x04'
p8371
tp8372
Rp8373
sba(iexample
Example
p8374
(dp8375
g5
Nsg6
S'May the 3rd 2002 US'
p8376
sg8
Nsg9
g10
(S'\x07\xd2\x05\x03'
p8377
tp8378
Rp8379
sba(iexample
Example
p8380
(dp8381
g5
Nsg6
S'5 March 1950 non-US'
p8382
sg8
Nsg9
g10
(S'\x07\x9e\x03\x05'
p8383
tp8384
Rp8385
sba(iexample
Example
p8386
(dp8387
g5
Nsg6
S'27th Apr 1980 non-US'
p8388
sg8
Nsg9
g10
(S'\x07\xbc\x04\x1b'
p8389
tp8390
Rp8391
sba(iexample
Example
p8392
(dp8393
g5
Nsg6
S'8 31 98 US'
p8394
sg8
Nsg9
g10
(S'\x07\xce\x08\x1f'
p8395
tp8396
Rp8397
sba(iexample
Example
p8398
(dp8399
g5
Nsg6
S'Aug the 12th 2036 US'
p8400
sg8
Nsg9
g10
(S'\x07\xf4\x08\x0c'
p8401
tp8402
Rp8403
sba(iexample
Example
p8404
(dp8405
g5
Nsg6
S'January 9 1976 US'
p8406
sg8
Nsg9
g10
(S'\x07\xb8\x01\t'
p8407
tp8408
Rp8409
sba(iexample
Example
p8410
(dp8411
g5
Nsg6
S'September the 5th 2057 US'
p8412
sg8
Nsg9
g10
(S'\x08\t\t\x05'
p8413
tp8414
Rp8415
sba(iexample
Example
p8416
(dp8417
g5
Nsg6
S'1961 08 06 US'
p8418
sg8
Nsg9
g10
(S'\x07\xa9\x08\x06'
p8419
tp8420
Rp8421
sba(iexample
Example
p8422
(dp8423
g5
Nsg6
S'24 Jun 2041 non-US'
p8424
sg8
Nsg9
g10
(S'\x07\xf9\x06\x18'
p8425
tp8426
Rp8427
sba(iexample
Example
p8428
(dp8429
g5
Nsg6
S'2039 08 02 non-US'
p8430
sg8
Nsg9
g10
(S'\x07\xf7\x08\x02'
p8431
tp8432
Rp8433
sba(iexample
Example
p8434
(dp8435
g5
Nsg6
S'2070 06 04 non-US'
p8436
sg8
Nsg9
g10
(S'\x08\x16\x06\x04'
p8437
tp8438
Rp8439
sba(iexample
Example
p8440
(dp8441
g5
Nsg6
S'Sep 10 2027 US'
p8442
sg8
Nsg9
g10
(S'\x07\xeb\t\n'
p8443
tp8444
Rp8445
sba(iexample
Example
p8446
(dp8447
g5
Nsg6
S'12th Oct 2009 non-US'
p8448
sg8
Nsg9
g10
(S'\x07\xd9\n\x0c'
p8449
tp8450
Rp8451
sba(iexample
Example
p8452
(dp8453
g5
Nsg6
S'23 2 1917 non-US'
p8454
sg8
Nsg9
g10
(S'\x07}\x02\x17'
p8455
tp8456
Rp8457
sba(iexample
Example
p8458
(dp8459
g5
Nsg6
S'29th Nov 2051 non-US'
p8460
sg8
Nsg9
g10
(S'\x08\x03\x0b\x1d'
p8461
tp8462
Rp8463
sba(iexample
Example
p8464
(dp8465
g5
Nsg6
S'02 03 52 US'
p8466
sg8
Nsg9
g10
(S'\x07\xa0\x02\x03'
p8467
tp8468
Rp8469
sba(iexample
Example
p8470
(dp8471
g5
Nsg6
S'26 Apr 1990 non-US'
p8472
sg8
Nsg9
g10
(S'\x07\xc6\x04\x1a'
p8473
tp8474
Rp8475
sba(iexample
Example
p8476
(dp8477
g5
Nsg6
S'2018 08 09 non-US'
p8478
sg8
Nsg9
g10
(S'\x07\xe2\x08\t'
p8479
tp8480
Rp8481
sba(iexample
Example
p8482
(dp8483
g5
Nsg6
S'10 07 2033 non-US'
p8484
sg8
Nsg9
g10
(S'\x07\xf1\x07\n'
p8485
tp8486
Rp8487
sba(iexample
Example
p8488
(dp8489
g5
Nsg6
S'May the 7th 1937 US'
p8490
sg8
Nsg9
g10
(S'\x07\x91\x05\x07'
p8491
tp8492
Rp8493
sba(iexample
Example
p8494
(dp8495
g5
Nsg6
S'7 Nov 2002 non-US'
p8496
sg8
Nsg9
g10
(S'\x07\xd2\x0b\x07'
p8497
tp8498
Rp8499
sba(iexample
Example
p8500
(dp8501
g5
Nsg6
S'04 04 02 US'
p8502
sg8
Nsg9
g10
(S'\x07n\x04\x04'
p8503
tp8504
Rp8505
sba(iexample
Example
p8506
(dp8507
g5
Nsg6
S'May 2 2000 US'
p8508
sg8
Nsg9
g10
(S'\x07\xd0\x05\x02'
p8509
tp8510
Rp8511
sba(iexample
Example
p8512
(dp8513
g5
Nsg6
S'15 8 2048 non-US'
p8514
sg8
Nsg9
g10
(S'\x08\x00\x08\x0f'
p8515
tp8516
Rp8517
sba(iexample
Example
p8518
(dp8519
g5
Nsg6
S'Jun 16 1990 US'
p8520
sg8
Nsg9
g10
(S'\x07\xc6\x06\x10'
p8521
tp8522
Rp8523
sba(iexample
Example
p8524
(dp8525
g5
Nsg6
S'9th April 1995 non-US'
p8526
sg8
Nsg9
g10
(S'\x07\xcb\x04\t'
p8527
tp8528
Rp8529
sba(iexample
Example
p8530
(dp8531
g5
Nsg6
S'2011 05 01 non-US'
p8532
sg8
Nsg9
g10
(S'\x07\xdb\x05\x01'
p8533
tp8534
Rp8535
sba(iexample
Example
p8536
(dp8537
g5
Nsg6
S'1939 04 10 non-US'
p8538
sg8
Nsg9
g10
(S'\x07\x93\x04\n'
p8539
tp8540
Rp8541
sba(iexample
Example
p8542
(dp8543
g5
Nsg6
S'1 Dec 2051 non-US'
p8544
sg8
Nsg9
g10
(S'\x08\x03\x0c\x01'
p8545
tp8546
Rp8547
sba(iexample
Example
p8548
(dp8549
g5
Nsg6
S'27 7 85 non-US'
p8550
sg8
Nsg9
g10
(S'\x07\xc1\x07\x1b'
p8551
tp8552
Rp8553
sba(iexample
Example
p8554
(dp8555
g5
Nsg6
S'5 9 14 non-US'
p8556
sg8
Nsg9
g10
(S'\x07z\t\x05'
p8557
tp8558
Rp8559
sba(iexample
Example
p8560
(dp8561
g5
Nsg6
S'August 31 2036 US'
p8562
sg8
Nsg9
g10
(S'\x07\xf4\x08\x1f'
p8563
tp8564
Rp8565
sba(iexample
Example
p8566
(dp8567
g5
Nsg6
S'8 12 2032 non-US'
p8568
sg8
Nsg9
g10
(S'\x07\xf0\x0c\x08'
p8569
tp8570
Rp8571
sba(iexample
Example
p8572
(dp8573
g5
Nsg6
S'1st Nov 1956 non-US'
p8574
sg8
Nsg9
g10
(S'\x07\xa4\x0b\x01'
p8575
tp8576
Rp8577
sba(iexample
Example
p8578
(dp8579
g5
Nsg6
S'01 08 09 non-US'
p8580
sg8
Nsg9
g10
(S'\x07u\x08\x01'
p8581
tp8582
Rp8583
sba(iexample
Example
p8584
(dp8585
g5
Nsg6
S'04 06 1973 non-US'
p8586
sg8
Nsg9
g10
(S'\x07\xb5\x06\x04'
p8587
tp8588
Rp8589
sba(iexample
Example
p8590
(dp8591
g5
Nsg6
S'November the 7th 1937 US'
p8592
sg8
Nsg9
g10
(S'\x07\x91\x0b\x07'
p8593
tp8594
Rp8595
sba(iexample
Example
p8596
(dp8597
g5
Nsg6
S'6 September 1900 non-US'
p8598
sg8
Nsg9
g10
(S'\x07l\t\x06'
p8599
tp8600
Rp8601
sba(iexample
Example
p8602
(dp8603
g5
Nsg6
S'Feb 18 1995 US'
p8604
sg8
Nsg9
g10
(S'\x07\xcb\x02\x12'
p8605
tp8606
Rp8607
sba(iexample
Example
p8608
(dp8609
g5
Nsg6
S'Apr the 13th 2001 US'
p8610
sg8
Nsg9
g10
(S'\x07\xd1\x04\r'
p8611
tp8612
Rp8613
sba(iexample
Example
p8614
(dp8615
g5
Nsg6
S'2074 09 03 non-US'
p8616
sg8
Nsg9
g10
(S'\x08\x1a\t\x03'
p8617
tp8618
Rp8619
sba(iexample
Example
p8620
(dp8621
g5
Nsg6
S'19th Nov 2048 non-US'
p8622
sg8
Nsg9
g10
(S'\x08\x00\x0b\x13'
p8623
tp8624
Rp8625
sba(iexample
Example
p8626
(dp8627
g5
Nsg6
S'2056 02 08 non-US'
p8628
sg8
Nsg9
g10
(S'\x08\x08\x02\x08'
p8629
tp8630
Rp8631
sba(iexample
Example
p8632
(dp8633
g5
Nsg6
S'4 20 1979 US'
p8634
sg8
Nsg9
g10
(S'\x07\xbb\x04\x14'
p8635
tp8636
Rp8637
sba(iexample
Example
p8638
(dp8639
g5
Nsg6
S'Feb the 13th 2031 US'
p8640
sg8
Nsg9
g10
(S'\x07\xef\x02\r'
p8641
tp8642
Rp8643
sba(iexample
Example
p8644
(dp8645
g5
Nsg6
S'07 02 1935 US'
p8646
sg8
Nsg9
g10
(S'\x07\x8f\x07\x02'
p8647
tp8648
Rp8649
sba(iexample
Example
p8650
(dp8651
g5
Nsg6
S'Feb the 7th 2005 US'
p8652
sg8
Nsg9
g10
(S'\x07\xd5\x02\x07'
p8653
tp8654
Rp8655
sba(iexample
Example
p8656
(dp8657
g5
Nsg6
S'2038 02 04 non-US'
p8658
sg8
Nsg9
g10
(S'\x07\xf6\x02\x04'
p8659
tp8660
Rp8661
sba(iexample
Example
p8662
(dp8663
g5
Nsg6
S'1st October 2028 non-US'
p8664
sg8
Nsg9
g10
(S'\x07\xec\n\x01'
p8665
tp8666
Rp8667
sba(iexample
Example
p8668
(dp8669
g5
Nsg6
S'2091 08 03 non-US'
p8670
sg8
Nsg9
g10
(S'\x08+\x08\x03'
p8671
tp8672
Rp8673
sba(iexample
Example
p8674
(dp8675
g5
Nsg6
S'12 7 2008 non-US'
p8676
sg8
Nsg9
g10
(S'\x07\xd8\x07\x0c'
p8677
tp8678
Rp8679
sba(iexample
Example
p8680
(dp8681
g5
Nsg6
S'Apr 24 1915 US'
p8682
sg8
Nsg9
g10
(S'\x07{\x04\x18'
p8683
tp8684
Rp8685
sba(iexample
Example
p8686
(dp8687
g5
Nsg6
S'2 Nov 1952 non-US'
p8688
sg8
Nsg9
g10
(S'\x07\xa0\x0b\x02'
p8689
tp8690
Rp8691
sba(iexample
Example
p8692
(dp8693
g5
Nsg6
S'2019 04 06 non-US'
p8694
sg8
Nsg9
g10
(S'\x07\xe3\x04\x06'
p8695
tp8696
Rp8697
sba(iexample
Example
p8698
(dp8699
g5
Nsg6
S'2019 04 05 non-US'
p8700
sg8
Nsg9
g10
(S'\x07\xe3\x04\x05'
p8701
tp8702
Rp8703
sba(iexample
Example
p8704
(dp8705
g5
Nsg6
S'April 10 2010 US'
p8706
sg8
Nsg9
g10
(S'\x07\xda\x04\n'
p8707
tp8708
Rp8709
sba(iexample
Example
p8710
(dp8711
g5
Nsg6
S'2075 08 04 non-US'
p8712
sg8
Nsg9
g10
(S'\x08\x1b\x08\x04'
p8713
tp8714
Rp8715
sba(iexample
Example
p8716
(dp8717
g5
Nsg6
S'9 2 17 non-US'
p8718
sg8
Nsg9
g10
(S'\x07}\x02\t'
p8719
tp8720
Rp8721
sba(iexample
Example
p8722
(dp8723
g5
Nsg6
S'10 15 38 US'
p8724
sg8
Nsg9
g10
(S'\x07\x92\n\x0f'
p8725
tp8726
Rp8727
sba(iexample
Example
p8728
(dp8729
g5
Nsg6
S'06 05 1935 non-US'
p8730
sg8
Nsg9
g10
(S'\x07\x8f\x05\x06'
p8731
tp8732
Rp8733
sba(iexample
Example
p8734
(dp8735
g5
Nsg6
S'December the 6th 1976 US'
p8736
sg8
Nsg9
g10
(S'\x07\xb8\x0c\x06'
p8737
tp8738
Rp8739
sba(iexample
Example
p8740
(dp8741
g5
Nsg6
S'24 May 1905 non-US'
p8742
sg8
Nsg9
g10
(S'\x07q\x05\x18'
p8743
tp8744
Rp8745
sba(iexample
Example
p8746
(dp8747
g5
Nsg6
S'6 January 1935 non-US'
p8748
sg8
Nsg9
g10
(S'\x07\x8f\x01\x06'
p8749
tp8750
Rp8751
sba(iexample
Example
p8752
(dp8753
g5
Nsg6
S'1 22 29 US'
p8754
sg8
Nsg9
g10
(S'\x07\x89\x01\x16'
p8755
tp8756
Rp8757
sba(iexample
Example
p8758
(dp8759
g5
Nsg6
S'19 December 2026 non-US'
p8760
sg8
Nsg9
g10
(S'\x07\xea\x0c\x13'
p8761
tp8762
Rp8763
sba(iexample
Example
p8764
(dp8765
g5
Nsg6
S'October the 29th 2097 US'
p8766
sg8
Nsg9
g10
(S'\x081\n\x1d'
p8767
tp8768
Rp8769
sba(iexample
Example
p8770
(dp8771
g5
Nsg6
S'09 07 20 non-US'
p8772
sg8
Nsg9
g10
(S'\x07\x80\x07\t'
p8773
tp8774
Rp8775
sba(iexample
Example
p8776
(dp8777
g5
Nsg6
S'September the 13th 2052 US'
p8778
sg8
Nsg9
g10
(S'\x08\x04\t\r'
p8779
tp8780
Rp8781
sba(iexample
Example
p8782
(dp8783
g5
Nsg6
S'May the 29th 1998 US'
p8784
sg8
Nsg9
g10
(S'\x07\xce\x05\x1d'
p8785
tp8786
Rp8787
sba(iexample
Example
p8788
(dp8789
g5
Nsg6
S'12 Oct 1977 non-US'
p8790
sg8
Nsg9
g10
(S'\x07\xb9\n\x0c'
p8791
tp8792
Rp8793
sba(iexample
Example
p8794
(dp8795
g5
Nsg6
S'23 2 2014 non-US'
p8796
sg8
Nsg9
g10
(S'\x07\xde\x02\x17'
p8797
tp8798
Rp8799
sba(iexample
Example
p8800
(dp8801
g5
Nsg6
S'Dec 27 2083 US'
p8802
sg8
Nsg9
g10
(S'\x08#\x0c\x1b'
p8803
tp8804
Rp8805
sba(iexample
Example
p8806
(dp8807
g5
Nsg6
S'September 6 2002 US'
p8808
sg8
Nsg9
g10
(S'\x07\xd2\t\x06'
p8809
tp8810
Rp8811
sba(iexample
Example
p8812
(dp8813
g5
Nsg6
S'April the 14th 2021 US'
p8814
sg8
Nsg9
g10
(S'\x07\xe5\x04\x0e'
p8815
tp8816
Rp8817
sba(iexample
Example
p8818
(dp8819
g5
Nsg6
S'21 8 2039 non-US'
p8820
sg8
Nsg9
g10
(S'\x07\xf7\x08\x15'
p8821
tp8822
Rp8823
sba(iexample
Example
p8824
(dp8825
g5
Nsg6
S'Sep the 11th 1966 US'
p8826
sg8
Nsg9
g10
(S'\x07\xae\t\x0b'
p8827
tp8828
Rp8829
sba(iexample
Example
p8830
(dp8831
g5
Nsg6
S'1 12 96 US'
p8832
sg8
Nsg9
g10
(S'\x07\xcc\x01\x0c'
p8833
tp8834
Rp8835
sba(iexample
Example
p8836
(dp8837
g5
Nsg6
S'01 01 69 non-US'
p8838
sg8
Nsg9
g10
(S'\x07\xb1\x01\x01'
p8839
tp8840
Rp8841
sba(iexample
Example
p8842
(dp8843
g5
Nsg6
S'5 12 33 US'
p8844
sg8
Nsg9
g10
(S'\x07\x8d\x05\x0c'
p8845
tp8846
Rp8847
sba(iexample
Example
p8848
(dp8849
g5
Nsg6
S'Mar the 6th 1960 US'
p8850
sg8
Nsg9
g10
(S'\x07\xa8\x03\x06'
p8851
tp8852
Rp8853
sba(iexample
Example
p8854
(dp8855
g5
Nsg6
S'19 Aug 1987 non-US'
p8856
sg8
Nsg9
g10
(S'\x07\xc3\x08\x13'
p8857
tp8858
Rp8859
sba(iexample
Example
p8860
(dp8861
g5
Nsg6
S'Dec 5 2087 US'
p8862
sg8
Nsg9
g10
(S"\x08'\x0c\x05"
p8863
tp8864
Rp8865
sba(iexample
Example
p8866
(dp8867
g5
Nsg6
S'1957 07 06 non-US'
p8868
sg8
Nsg9
g10
(S'\x07\xa5\x07\x06'
p8869
tp8870
Rp8871
sba(iexample
Example
p8872
(dp8873
g5
Nsg6
S'09 07 04 non-US'
p8874
sg8
Nsg9
g10
(S'\x07p\x07\t'
p8875
tp8876
Rp8877
sba(iexample
Example
p8878
(dp8879
g5
Nsg6
S'6 25 2083 US'
p8880
sg8
Nsg9
g10
(S'\x08#\x06\x19'
p8881
tp8882
Rp8883
sba(iexample
Example
p8884
(dp8885
g5
Nsg6
S'2076 07 03 non-US'
p8886
sg8
Nsg9
g10
(S'\x08\x1c\x07\x03'
p8887
tp8888
Rp8889
sba(iexample
Example
p8890
(dp8891
g5
Nsg6
S'07 09 1935 non-US'
p8892
sg8
Nsg9
g10
(S'\x07\x8f\t\x07'
p8893
tp8894
Rp8895
sba(iexample
Example
p8896
(dp8897
g5
Nsg6
S'May the 28th 2035 US'
p8898
sg8
Nsg9
g10
(S'\x07\xf3\x05\x1c'
p8899
tp8900
Rp8901
sba(iexample
Example
p8902
(dp8903
g5
Nsg6
S'02 06 39 US'
p8904
sg8
Nsg9
g10
(S'\x07\x93\x02\x06'
p8905
tp8906
Rp8907
sba(iexample
Example
p8908
(dp8909
g5
Nsg6
S'11 25 44 US'
p8910
sg8
Nsg9
g10
(S'\x07\x98\x0b\x19'
p8911
tp8912
Rp8913
sba(iexample
Example
p8914
(dp8915
g5
Nsg6
S'May the 6th 1926 US'
p8916
sg8
Nsg9
g10
(S'\x07\x86\x05\x06'
p8917
tp8918
Rp8919
sba(iexample
Example
p8920
(dp8921
g5
Nsg6
S'03 09 93 US'
p8922
sg8
Nsg9
g10
(S'\x07\xc9\x03\t'
p8923
tp8924
Rp8925
sba(iexample
Example
p8926
(dp8927
g5
Nsg6
S'08 03 70 US'
p8928
sg8
Nsg9
g10
(S'\x07\xb2\x08\x03'
p8929
tp8930
Rp8931
sba(iexample
Example
p8932
(dp8933
g5
Nsg6
S'28 Jun 1998 non-US'
p8934
sg8
Nsg9
g10
(S'\x07\xce\x06\x1c'
p8935
tp8936
Rp8937
sba(iexample
Example
p8938
(dp8939
g5
Nsg6
S'30 Jun 2013 non-US'
p8940
sg8
Nsg9
g10
(S'\x07\xdd\x06\x1e'
p8941
tp8942
Rp8943
sba(iexample
Example
p8944
(dp8945
g5
Nsg6
S'24th Mar 1939 non-US'
p8946
sg8
Nsg9
g10
(S'\x07\x93\x03\x18'
p8947
tp8948
Rp8949
sba(iexample
Example
p8950
(dp8951
g5
Nsg6
S'Jul the 26th 2089 US'
p8952
sg8
Nsg9
g10
(S'\x08)\x07\x1a'
p8953
tp8954
Rp8955
sba(iexample
Example
p8956
(dp8957
g5
Nsg6
S'14 6 2004 non-US'
p8958
sg8
Nsg9
g10
(S'\x07\xd4\x06\x0e'
p8959
tp8960
Rp8961
sba(iexample
Example
p8962
(dp8963
g5
Nsg6
S'2081 02 08 non-US'
p8964
sg8
Nsg9
g10
(S'\x08!\x02\x08'
p8965
tp8966
Rp8967
sba(iexample
Example
p8968
(dp8969
g5
Nsg6
S'Mar the 5th 2020 US'
p8970
sg8
Nsg9
g10
(S'\x07\xe4\x03\x05'
p8971
tp8972
Rp8973
sba(iexample
Example
p8974
(dp8975
g5
Nsg6
S'September the 9th 2001 US'
p8976
sg8
Nsg9
g10
(S'\x07\xd1\t\t'
p8977
tp8978
Rp8979
sba(iexample
Example
p8980
(dp8981
g5
Nsg6
S'Mar 31 2058 US'
p8982
sg8
Nsg9
g10
(S'\x08\n\x03\x1f'
p8983
tp8984
Rp8985
sba(iexample
Example
p8986
(dp8987
g5
Nsg6
S'07 07 43 non-US'
p8988
sg8
Nsg9
g10
(S'\x07\x97\x07\x07'
p8989
tp8990
Rp8991
sba(iexample
Example
p8992
(dp8993
g5
Nsg6
S'June the 29th 2084 US'
p8994
sg8
Nsg9
g10
(S'\x08$\x06\x1d'
p8995
tp8996
Rp8997
sba(iexample
Example
p8998
(dp8999
g5
Nsg6
S'November 12 1924 US'
p9000
sg8
Nsg9
g10
(S'\x07\x84\x0b\x0c'
p9001
tp9002
Rp9003
sba(iexample
Example
p9004
(dp9005
g5
Nsg6
S'Feb 10 2019 US'
p9006
sg8
Nsg9
g10
(S'\x07\xe3\x02\n'
p9007
tp9008
Rp9009
sbas.